******************************************************************************
                  TI ARM Linker PC v15.12.3                    
******************************************************************************
>> Linked Mon May 01 16:56:04 2017

OUTPUT FILE NAME:   <ProjectZeroApp_CC2650LAUNCHXL.out>
ENTRY POINT SYMBOL: "ResetISR"  address: 0000a25d


MEMORY CONFIGURATION

         name            origin    length      used     unused   attr    fill
----------------------  --------  ---------  --------  --------  ----  --------
  FLASH                 00000000   0000dfff  0000dff9  00000006  R  X
  FLASH_LAST_PAGE       0001f000   00001000  00000b98  00000468  R  X
  SRAM                  20000000   000043e7  000035da  00000e0d  RW X


SEGMENT ALLOCATION MAP

run origin  load origin   length   init length attrs members
----------  ----------- ---------- ----------- ----- -------
00000000    00000000    0000dfff   0000dfff    r-x
  00000000    00000000    0000003c   0000003c    r-- .resetVecs
  0000003c    0000003c    000000c4   000000c4    r-x .text.1
  00000100    00000100    0000003c   0000003c    r-- .const:ti_sysbios_knl_Task_Object__PARAMS__C
  0000013c    0000013c    00000034   00000034    r-- .const:ti_sysbios_knl_Mailbox_Object__PARAMS__C
  00000170    00000170    00000030   00000030    r-- .const:ti_sysbios_family_arm_m3_Hwi_Object__PARAMS__C
  000001a0    000001a0    0000002c   0000002c    r-- .const:ti_sysbios_hal_Hwi_Object__PARAMS__C
  000001cc    000001cc    00000028   00000028    r-- .const:ti_sysbios_heaps_HeapMem_Module__FXNS__C
  000001f4    000001f4    00000028   00000028    r-- .const:ti_sysbios_knl_Swi_Object__PARAMS__C
  0000021c    0000021c    00000024   00000024    r-- .const:ti_sysbios_gates_GateHwi_Module__FXNS__C
  00000240    00000240    00000024   00000024    r-- .const:ti_sysbios_gates_GateMutex_Module__FXNS__C
  00000264    00000264    00000024   00000024    r-- .const:ti_sysbios_heaps_HeapMem_Object__PARAMS__C
  00000288    00000288    00000024   00000024    r-- .const:ti_sysbios_knl_Clock_Object__PARAMS__C
  000002ac    000002ac    00000024   00000024    r-- .const:ti_sysbios_knl_Semaphore_Object__PARAMS__C
  000002d0    000002d0    00000020   00000020    r-- .const:ti_sysbios_family_arm_m3_Hwi_Object__DESC__C
  000002f0    000002f0    00000020   00000020    r-- .const:ti_sysbios_gates_GateHwi_Object__DESC__C
  00000310    00000310    00000020   00000020    r-- .const:ti_sysbios_gates_GateMutex_Object__DESC__C
  00000330    00000330    00000020   00000020    r-- .const:ti_sysbios_hal_Hwi_Object__DESC__C
  00000350    00000350    00000020   00000020    r-- .const:ti_sysbios_heaps_HeapMem_Object__DESC__C
  00000370    00000370    00000020   00000020    r-- .const:ti_sysbios_knl_Clock_Object__DESC__C
  00000390    00000390    00000020   00000020    r-- .const:ti_sysbios_knl_Mailbox_Object__DESC__C
  000003b0    000003b0    00000020   00000020    r-- .const:ti_sysbios_knl_Queue_Object__DESC__C
  000003d0    000003d0    00000020   00000020    r-- .const:ti_sysbios_knl_Semaphore_Object__DESC__C
  000003f0    000003f0    00000020   00000020    r-- .const:ti_sysbios_knl_Swi_Object__DESC__C
  00000410    00000410    00000020   00000020    r-- .const:ti_sysbios_knl_Task_Object__DESC__C
  00000430    00000430    00000018   00000018    r-- .const:ti_sysbios_gates_GateHwi_Object__PARAMS__C
  00000448    00000448    00000018   00000018    r-- .const:ti_sysbios_gates_GateMutex_Object__PARAMS__C
  00000460    00000460    00000018   00000018    r-- .const:ti_sysbios_knl_Queue_Object__PARAMS__C
  00000478    00000478    00000008   00000008    r-- .const:ti_sysbios_knl_Idle_funcList__C
  00000480    00000480    00000004   00000004    r-x .text.2
  00000484    00000484    00000004   00000004    r-- .const:ti_sysbios_family_arm_cc26xx_Timer_startupNeeded__C
  00000488    00000488    00000004   00000004    r-- .const:ti_sysbios_family_arm_m3_Hwi_E_alreadyDefined__C
  0000048c    0000048c    00000004   00000004    r-- .const:ti_sysbios_family_arm_m3_Hwi_E_hwiLimitExceeded__C
  00000490    00000490    00000004   00000004    r-- .const:ti_sysbios_family_arm_m3_Hwi_NUM_INTERRUPTS__C
  00000494    00000494    00000004   00000004    r-- .const:ti_sysbios_family_arm_m3_Hwi_Object__count__C
  00000498    00000498    00000004   00000004    r-- .const:ti_sysbios_family_arm_m3_Hwi_Object__table__C
  0000049c    0000049c    00000004   00000004    r-- .const:ti_sysbios_family_arm_m3_Hwi_ccr__C
  000004a0    000004a0    00000004   00000004    r-- .const:ti_sysbios_family_arm_m3_Hwi_excHandlerFunc__C
  000004a4    000004a4    00000004   00000004    r-- .const:ti_sysbios_family_arm_m3_Hwi_nullIsrFunc__C
  000004a8    000004a8    00000004   00000004    r-- .const:ti_sysbios_family_arm_m3_Hwi_numSparseInterrupts__C
  000004ac    000004ac    00000004   00000004    r-- .const:ti_sysbios_family_arm_m3_Hwi_priGroup__C
  000004b0    000004b0    00000004   00000004    r-- .const:ti_sysbios_family_arm_m3_TaskSupport_stackAlignment__C
  000004b4    000004b4    00000004   00000004    r-- .const:ti_sysbios_heaps_HeapMem_E_memory__C
  000004b8    000004b8    00000004   00000004    r-- .const:ti_sysbios_heaps_HeapMem_Module__gateObj__C
  000004bc    000004bc    00000004   00000004    r-- .const:ti_sysbios_heaps_HeapMem_Object__count__C
  000004c0    000004c0    00000004   00000004    r-- .const:ti_sysbios_heaps_HeapMem_Object__table__C
  000004c4    000004c4    00000004   00000004    r-- .const:ti_sysbios_heaps_HeapMem_reqAlign__C
  000004c8    000004c8    00000004   00000004    r-- .const:ti_sysbios_knl_Clock_serviceMargin__C
  000004cc    000004cc    00000004   00000004    r-- .const:ti_sysbios_knl_Mailbox_Object__count__C
  000004d0    000004d0    00000004   00000004    r-- .const:ti_sysbios_knl_Mailbox_Object__table__C
  000004d4    000004d4    00000004   00000004    r-- .const:ti_sysbios_knl_Queue_Object__count__C
  000004d8    000004d8    00000004   00000004    r-- .const:ti_sysbios_knl_Queue_Object__table__C
  000004dc    000004dc    00000004   00000004    r-- .const:ti_sysbios_knl_Swi_Object__count__C
  000004e0    000004e0    00000004   00000004    r-- .const:ti_sysbios_knl_Swi_Object__table__C
  000004e4    000004e4    00000004   00000004    r-- .const:ti_sysbios_knl_Swi_numPriorities__C
  000004e8    000004e8    00000004   00000004    r-- .const:ti_sysbios_knl_Task_Object__count__C
  000004ec    000004ec    00000004   00000004    r-- .const:ti_sysbios_knl_Task_Object__table__C
  000004f0    000004f0    00000004   00000004    r-- .const:ti_sysbios_knl_Task_allBlockedFunc__C
  000004f4    000004f4    00000004   00000004    r-- .const:ti_sysbios_knl_Task_defaultStackHeap__C
  000004f8    000004f8    00000004   00000004    r-- .const:ti_sysbios_knl_Task_defaultStackSize__C
  000004fc    000004fc    00000004   00000004    r-- .const:ti_sysbios_knl_Task_numConstructedTasks__C
  00000500    00000500    00000002   00000002    r-x .text.3
  00000502    00000502    00000002   00000002    r-- .const:ti_sysbios_family_arm_cc26xx_Timer_Module__id__C
  00000504    00000504    00000002   00000002    r-- .const:ti_sysbios_family_arm_cc26xx_TimestampProvider_useClockTimer__C
  00000506    00000506    00000002   00000002    r-- .const:ti_sysbios_family_arm_m3_Hwi_Module__id__C
  00000508    00000508    00000002   00000002    r-- .const:ti_sysbios_gates_GateHwi_Module__id__C
  0000050a    0000050a    00000002   00000002    r-- .const:ti_sysbios_gates_GateMutex_Module__id__C
  0000050c    0000050c    00000002   00000002    r-- .const:ti_sysbios_heaps_HeapMem_Module__id__C
  0000050e    0000050e    00000002   00000002    r-- .const:ti_sysbios_knl_Task_initStackFlag__C
  00000510    00000510    00000001   00000001    r-- .const:ti_sysbios_knl_Clock_tickMode__C
  00000514    00000514    00000008   00000008    r-- .const:xdc_runtime_Startup_firstFxns__C
  0000051c    0000051c    00000008   00000008    r-- .const:xdc_runtime_Startup_lastFxns__C
  00000524    00000524    00000004   00000004    r-- .const:xdc_runtime_Assert_E_assertFailed__C
  00000528    00000528    00000004   00000004    r-- .const:xdc_runtime_Error_E_memory__C
  0000052c    0000052c    00000004   00000004    r-- .const:xdc_runtime_Error_policyFxn__C
  00000530    00000530    00000004   00000004    r-- .const:xdc_runtime_IGateProvider_Interface__BASE__C
  00000534    00000534    00000004   00000004    r-- .const:xdc_runtime_IHeap_Interface__BASE__C
  00000538    00000538    00000004   00000004    r-- .const:xdc_runtime_IModule_Interface__BASE__C
  0000053c    0000053c    00000004   00000004    r-- .const:xdc_runtime_Main_Module__diagsEnabled__C
  00000540    00000540    00000004   00000004    r-- .const:xdc_runtime_Main_Module__diagsIncluded__C
  00000544    00000544    00000004   00000004    r-- .const:xdc_runtime_Main_Module__diagsMask__C
  00000548    00000548    00000004   00000004    r-- .const:xdc_runtime_Memory_defaultHeapInstance__C
  0000054c    0000054c    00000004   00000004    r-- .const:xdc_runtime_Startup_execImpl__C
  00000550    00000550    00000004   00000004    r-- .const:xdc_runtime_Startup_maxPasses__C
  00000554    00000554    00000004   00000004    r-- .const:xdc_runtime_Startup_sfxnRts__C
  00000558    00000558    00000004   00000004    r-- .const:xdc_runtime_Startup_sfxnTab__C
  0000055c    0000055c    00000004   00000004    r-- .const:xdc_runtime_Startup_startModsFxn__C
  00000560    00000560    00000004   00000004    r-- .const:xdc_runtime_SysCallback_abortFxn__C
  00000564    00000564    00000004   00000004    r-- .const:xdc_runtime_SysCallback_exitFxn__C
  00000568    00000568    00000004   00000004    r-- .const:xdc_runtime_System_abortFxn__C
  0000056c    0000056c    00000004   00000004    r-- .const:xdc_runtime_System_exitFxn__C
  00000570    00000570    00000004   00000004    r-- .const:xdc_runtime_System_maxAtexitHandlers__C
  00000574    00000574    00000004   00000004    r-- .const:xdc_runtime_Text_charTab__C
  00000578    00000578    00000004   00000004    r-- .const:xdc_runtime_Text_nameEmpty__C
  0000057c    0000057c    00000004   00000004    r-- .const:xdc_runtime_Text_nameStatic__C
  00000580    00000580    00000004   00000004    r-- .const:xdc_runtime_Text_nameUnknown__C
  00000584    00000584    00000002   00000002    r-- .const:xdc_runtime_Main_Module__id__C
  00000586    00000586    00000002   00000002    r-- .const:xdc_runtime_Memory_Module__id__C
  00000588    00000588    00000002   00000002    r-- .const:xdc_runtime_Text_charCnt__C
  0000058a    0000058a    00000002   00000002    r-- .const:xdc_runtime_Text_isLoaded__C
  0000058c    0000058c    00000001   00000001    r-- .const:xdc_runtime_Error_policy__C
  00000590    00000590    00000004   00000004    r-- .const:ti_sysbios_rom_ROM_AONRTCChannelEnable
  00000594    00000594    00000004   00000004    r-- .const:ti_sysbios_rom_ROM_AONRTCCompareValueSet
  00000598    00000598    00000004   00000004    r-- .const:ti_sysbios_rom_ROM_AONRTCCurrentCompareValueGet
  0000059c    0000059c    00000004   00000004    r-- .const:ti_sysbios_rom_ROM_AONRTCEventClear
  000005a0    000005a0    00000004   00000004    r-- .const:ti_sysbios_rom_ROM_ti_sysbios_family_arm_cc26xx_Timer_getCount64__E
  000005a4    000005a4    00000004   00000004    r-- .const:ti_sysbios_rom_ROM_ti_sysbios_family_arm_cc26xx_Timer_getCurrentTick__E
  000005a8    000005a8    00000004   00000004    r-- .const:ti_sysbios_rom_ROM_ti_sysbios_family_arm_cc26xx_Timer_getMaxTicks__E
  000005ac    000005ac    00000004   00000004    r-- .const:ti_sysbios_rom_ROM_ti_sysbios_family_arm_cc26xx_Timer_initDevice__I
  000005b0    000005b0    00000004   00000004    r-- .const:ti_sysbios_rom_ROM_ti_sysbios_family_arm_cc26xx_Timer_setNextTick__E
  000005b4    000005b4    00000004   00000004    r-- .const:ti_sysbios_rom_ROM_ti_sysbios_family_arm_cc26xx_Timer_setThreshold__I
  000005b8    000005b8    00000004   00000004    r-- .const:ti_sysbios_rom_ROM_ti_sysbios_family_arm_cc26xx_Timer_start__E
  000005bc    000005bc    00000004   00000004    r-- .const:ti_sysbios_rom_ROM_ti_sysbios_family_arm_cc26xx_TimestampProvider_get32__E
  000005c0    000005c0    00000004   00000004    r-- .const:ti_sysbios_rom_ROM_xdc_runtime_Startup_getState__I
  000005c4    000005c4    00000004   00000004    r-- .const:ti_sysbios_rom_ROM_xdc_runtime_System_SupportProxy_abort__E
  000005c8    000005c8    00000004   00000004    r-- .const:ti_sysbios_rom_ROM_xdc_runtime_System_SupportProxy_exit__E
  000005cc    000005cc    00000004   00000004    r-- .const:ti_sysbios_gates_GateMutex_Instance_State_sem__O
  000005d0    000005d0    00000004   00000004    r-- .const:ti_sysbios_knl_Clock_Module_State_clockQ__O
  000005d4    000005d4    00000004   00000004    r-- .const:ti_sysbios_knl_Mailbox_Instance_State_dataQue__O
  000005d8    000005d8    00000004   00000004    r-- .const:ti_sysbios_knl_Mailbox_Instance_State_dataSem__O
  000005dc    000005dc    00000004   00000004    r-- .const:ti_sysbios_knl_Mailbox_Instance_State_freeQue__O
  000005e0    000005e0    00000004   00000004    r-- .const:ti_sysbios_knl_Mailbox_Instance_State_freeSem__O
  000005e4    000005e4    00000004   00000004    r-- .const:ti_sysbios_knl_Semaphore_Instance_State_pendQ__O
  000005e8    000005e8    00000004   00000004    r-- .const:ti_sysbios_knl_Task_Module_State_inactiveQ__O
  000005ec    000005ec    0000c044   0000c044    r-x .text.4
  0000c630    0000c630    000019cf   000019cf    r-- .const.1
0001f000    0001f000    00000b44   00000b44    r--
  0001f000    0001f000    0000032c   0000032c    r-- .const.2
  0001f330    0001f330    00000814   00000814    r-- .cinit
0001ffa8    0001ffa8    00000058   00000058    r--
  0001ffa8    0001ffa8    00000058   00000058    r-- .ccfg
20000000    20000000    000000c8   00000000    rw-
  20000000    20000000    000000c8   00000000    rw- .vecs
20000100    20000100    00000104   00000000    rw-
  20000100    20000100    00000044   00000000    rw- .data:ti_sysbios_knl_Task_Module__state__V
  20000144    20000144    00000034   00000000    rw- .data:ti_sysbios_family_arm_m3_Hwi_Module__state__V
  20000178    20000178    0000002c   00000000    rw- .data:ti_sysbios_knl_Clock_Module__state__V
  200001a4    200001a4    00000024   00000000    rw- .data:ti_sysbios_BIOS_Module__state__V
  200001c8    200001c8    0000001c   00000000    rw- .data:ti_sysbios_knl_Swi_Module__state__V
  200001e4    200001e4    00000008   00000000    rw- .data:ti_sysbios_family_arm_cc26xx_Timer_Module__state__V
  200001ec    200001ec    00000004   00000000    rw- .data:ti_sysbios_family_arm_cc26xx_TimestampProvider_Module__state__V
  200001f0    200001f0    00000008   00000000    rw- .data:xdc_runtime_Startup_Module__state__V
  200001f8    200001f8    00000008   00000000    rw- .data:xdc_runtime_System_Module__state__V
  20000200    20000200    00000004   00000000    rw- .data:xdc_runtime_Memory_Module__state__V
20000430    20000430    00000010   00000000    rw-
  20000430    20000430    00000010   00000000    rw- .TI.bound:dmaRxControlTableEntry0
20000440    20000440    00000010   00000000    rw-
  20000440    20000440    00000010   00000000    rw- .TI.bound:dmaTxControlTableEntry0
20000500    20000500    00000010   00000000    rw-
  20000500    20000500    00000010   00000000    rw- .TI.bound:dmaRxControlTableEntry1
20000510    20000510    00002fe4   00000000    rw-
  20000510    20000510    00000010   00000000    rw- .TI.bound:dmaTxControlTableEntry1
  20000520    20000520    0000273a   00000000    rw- .bss
  20002c60    20002c60    00000894   00000000    rw- .data
20003fe4    20003fe4    00000400   00000000    rw-
  20003fe4    20003fe4    00000400   00000000    rw- .stack


SECTION ALLOCATION MAP

 output                                  attributes/
section   page    origin      length       input sections
--------  ----  ----------  ----------   ----------------
.resetVecs 
*          0    00000000    0000003c     
                  00000000    0000003c     appBLE_UartLog_pem3.oem3 (.resetVecs)

.text.1    0    0000003c    000000c4     
                  0000003c    000000bc     ProjectZero.obj (.text:ProjectZero_processStackMsg)
                  000000f8    00000008     ICallBleAPI.obj (.text:GAP_RegisterForMsgs)

.const:ti_sysbios_knl_Task_Object__PARAMS__C 
*          0    00000100    0000003c     
                  00000100    0000003c     appBLE_UartLog_pem3.oem3 (.const:ti_sysbios_knl_Task_Object__PARAMS__C)

.const:ti_sysbios_knl_Mailbox_Object__PARAMS__C 
*          0    0000013c    00000034     
                  0000013c    00000034     appBLE_UartLog_pem3.oem3 (.const:ti_sysbios_knl_Mailbox_Object__PARAMS__C)

.const:ti_sysbios_family_arm_m3_Hwi_Object__PARAMS__C 
*          0    00000170    00000030     
                  00000170    00000030     appBLE_UartLog_pem3.oem3 (.const:ti_sysbios_family_arm_m3_Hwi_Object__PARAMS__C)

.const:ti_sysbios_hal_Hwi_Object__PARAMS__C 
*          0    000001a0    0000002c     
                  000001a0    0000002c     appBLE_UartLog_pem3.oem3 (.const:ti_sysbios_hal_Hwi_Object__PARAMS__C)

.const:ti_sysbios_heaps_HeapMem_Module__FXNS__C 
*          0    000001cc    00000028     
                  000001cc    00000028     appBLE_UartLog_pem3.oem3 (.const:ti_sysbios_heaps_HeapMem_Module__FXNS__C)

.const:ti_sysbios_knl_Swi_Object__PARAMS__C 
*          0    000001f4    00000028     
                  000001f4    00000028     appBLE_UartLog_pem3.oem3 (.const:ti_sysbios_knl_Swi_Object__PARAMS__C)

.const:ti_sysbios_gates_GateHwi_Module__FXNS__C 
*          0    0000021c    00000024     
                  0000021c    00000024     appBLE_UartLog_pem3.oem3 (.const:ti_sysbios_gates_GateHwi_Module__FXNS__C)

.const:ti_sysbios_gates_GateMutex_Module__FXNS__C 
*          0    00000240    00000024     
                  00000240    00000024     appBLE_UartLog_pem3.oem3 (.const:ti_sysbios_gates_GateMutex_Module__FXNS__C)

.const:ti_sysbios_heaps_HeapMem_Object__PARAMS__C 
*          0    00000264    00000024     
                  00000264    00000024     appBLE_UartLog_pem3.oem3 (.const:ti_sysbios_heaps_HeapMem_Object__PARAMS__C)

.const:ti_sysbios_knl_Clock_Object__PARAMS__C 
*          0    00000288    00000024     
                  00000288    00000024     appBLE_UartLog_pem3.oem3 (.const:ti_sysbios_knl_Clock_Object__PARAMS__C)

.const:ti_sysbios_knl_Semaphore_Object__PARAMS__C 
*          0    000002ac    00000024     
                  000002ac    00000024     appBLE_UartLog_pem3.oem3 (.const:ti_sysbios_knl_Semaphore_Object__PARAMS__C)

.const:ti_sysbios_family_arm_m3_Hwi_Object__DESC__C 
*          0    000002d0    00000020     
                  000002d0    00000020     appBLE_UartLog_pem3.oem3 (.const:ti_sysbios_family_arm_m3_Hwi_Object__DESC__C)

.const:ti_sysbios_gates_GateHwi_Object__DESC__C 
*          0    000002f0    00000020     
                  000002f0    00000020     appBLE_UartLog_pem3.oem3 (.const:ti_sysbios_gates_GateHwi_Object__DESC__C)

.const:ti_sysbios_gates_GateMutex_Object__DESC__C 
*          0    00000310    00000020     
                  00000310    00000020     appBLE_UartLog_pem3.oem3 (.const:ti_sysbios_gates_GateMutex_Object__DESC__C)

.const:ti_sysbios_hal_Hwi_Object__DESC__C 
*          0    00000330    00000020     
                  00000330    00000020     appBLE_UartLog_pem3.oem3 (.const:ti_sysbios_hal_Hwi_Object__DESC__C)

.const:ti_sysbios_heaps_HeapMem_Object__DESC__C 
*          0    00000350    00000020     
                  00000350    00000020     appBLE_UartLog_pem3.oem3 (.const:ti_sysbios_heaps_HeapMem_Object__DESC__C)

.const:ti_sysbios_knl_Clock_Object__DESC__C 
*          0    00000370    00000020     
                  00000370    00000020     appBLE_UartLog_pem3.oem3 (.const:ti_sysbios_knl_Clock_Object__DESC__C)

.const:ti_sysbios_knl_Mailbox_Object__DESC__C 
*          0    00000390    00000020     
                  00000390    00000020     appBLE_UartLog_pem3.oem3 (.const:ti_sysbios_knl_Mailbox_Object__DESC__C)

.const:ti_sysbios_knl_Queue_Object__DESC__C 
*          0    000003b0    00000020     
                  000003b0    00000020     appBLE_UartLog_pem3.oem3 (.const:ti_sysbios_knl_Queue_Object__DESC__C)

.const:ti_sysbios_knl_Semaphore_Object__DESC__C 
*          0    000003d0    00000020     
                  000003d0    00000020     appBLE_UartLog_pem3.oem3 (.const:ti_sysbios_knl_Semaphore_Object__DESC__C)

.const:ti_sysbios_knl_Swi_Object__DESC__C 
*          0    000003f0    00000020     
                  000003f0    00000020     appBLE_UartLog_pem3.oem3 (.const:ti_sysbios_knl_Swi_Object__DESC__C)

.const:ti_sysbios_knl_Task_Object__DESC__C 
*          0    00000410    00000020     
                  00000410    00000020     appBLE_UartLog_pem3.oem3 (.const:ti_sysbios_knl_Task_Object__DESC__C)

.const:ti_sysbios_gates_GateHwi_Object__PARAMS__C 
*          0    00000430    00000018     
                  00000430    00000018     appBLE_UartLog_pem3.oem3 (.const:ti_sysbios_gates_GateHwi_Object__PARAMS__C)

.const:ti_sysbios_gates_GateMutex_Object__PARAMS__C 
*          0    00000448    00000018     
                  00000448    00000018     appBLE_UartLog_pem3.oem3 (.const:ti_sysbios_gates_GateMutex_Object__PARAMS__C)

.const:ti_sysbios_knl_Queue_Object__PARAMS__C 
*          0    00000460    00000018     
                  00000460    00000018     appBLE_UartLog_pem3.oem3 (.const:ti_sysbios_knl_Queue_Object__PARAMS__C)

.const:ti_sysbios_knl_Idle_funcList__C 
*          0    00000478    00000008     
                  00000478    00000008     appBLE_UartLog_pem3.oem3 (.const:ti_sysbios_knl_Idle_funcList__C)

.text.2    0    00000480    00000004     
                  00000480    00000004     ICall.obj (.text:ICall_primAbort)

.const:ti_sysbios_family_arm_cc26xx_Timer_startupNeeded__C 
*          0    00000484    00000004     
                  00000484    00000004     appBLE_UartLog_pem3.oem3 (.const:ti_sysbios_family_arm_cc26xx_Timer_startupNeeded__C)

.const:ti_sysbios_family_arm_m3_Hwi_E_alreadyDefined__C 
*          0    00000488    00000004     
                  00000488    00000004     appBLE_UartLog_pem3.oem3 (.const:ti_sysbios_family_arm_m3_Hwi_E_alreadyDefined__C)

.const:ti_sysbios_family_arm_m3_Hwi_E_hwiLimitExceeded__C 
*          0    0000048c    00000004     
                  0000048c    00000004     appBLE_UartLog_pem3.oem3 (.const:ti_sysbios_family_arm_m3_Hwi_E_hwiLimitExceeded__C)

.const:ti_sysbios_family_arm_m3_Hwi_NUM_INTERRUPTS__C 
*          0    00000490    00000004     
                  00000490    00000004     appBLE_UartLog_pem3.oem3 (.const:ti_sysbios_family_arm_m3_Hwi_NUM_INTERRUPTS__C)

.const:ti_sysbios_family_arm_m3_Hwi_Object__count__C 
*          0    00000494    00000004     
                  00000494    00000004     appBLE_UartLog_pem3.oem3 (.const:ti_sysbios_family_arm_m3_Hwi_Object__count__C)

.const:ti_sysbios_family_arm_m3_Hwi_Object__table__C 
*          0    00000498    00000004     
                  00000498    00000004     appBLE_UartLog_pem3.oem3 (.const:ti_sysbios_family_arm_m3_Hwi_Object__table__C)

.const:ti_sysbios_family_arm_m3_Hwi_ccr__C 
*          0    0000049c    00000004     
                  0000049c    00000004     appBLE_UartLog_pem3.oem3 (.const:ti_sysbios_family_arm_m3_Hwi_ccr__C)

.const:ti_sysbios_family_arm_m3_Hwi_excHandlerFunc__C 
*          0    000004a0    00000004     
                  000004a0    00000004     appBLE_UartLog_pem3.oem3 (.const:ti_sysbios_family_arm_m3_Hwi_excHandlerFunc__C)

.const:ti_sysbios_family_arm_m3_Hwi_nullIsrFunc__C 
*          0    000004a4    00000004     
                  000004a4    00000004     appBLE_UartLog_pem3.oem3 (.const:ti_sysbios_family_arm_m3_Hwi_nullIsrFunc__C)

.const:ti_sysbios_family_arm_m3_Hwi_numSparseInterrupts__C 
*          0    000004a8    00000004     
                  000004a8    00000004     appBLE_UartLog_pem3.oem3 (.const:ti_sysbios_family_arm_m3_Hwi_numSparseInterrupts__C)

.const:ti_sysbios_family_arm_m3_Hwi_priGroup__C 
*          0    000004ac    00000004     
                  000004ac    00000004     appBLE_UartLog_pem3.oem3 (.const:ti_sysbios_family_arm_m3_Hwi_priGroup__C)

.const:ti_sysbios_family_arm_m3_TaskSupport_stackAlignment__C 
*          0    000004b0    00000004     
                  000004b0    00000004     appBLE_UartLog_pem3.oem3 (.const:ti_sysbios_family_arm_m3_TaskSupport_stackAlignment__C)

.const:ti_sysbios_heaps_HeapMem_E_memory__C 
*          0    000004b4    00000004     
                  000004b4    00000004     appBLE_UartLog_pem3.oem3 (.const:ti_sysbios_heaps_HeapMem_E_memory__C)

.const:ti_sysbios_heaps_HeapMem_Module__gateObj__C 
*          0    000004b8    00000004     
                  000004b8    00000004     appBLE_UartLog_pem3.oem3 (.const:ti_sysbios_heaps_HeapMem_Module__gateObj__C)

.const:ti_sysbios_heaps_HeapMem_Object__count__C 
*          0    000004bc    00000004     
                  000004bc    00000004     appBLE_UartLog_pem3.oem3 (.const:ti_sysbios_heaps_HeapMem_Object__count__C)

.const:ti_sysbios_heaps_HeapMem_Object__table__C 
*          0    000004c0    00000004     
                  000004c0    00000004     appBLE_UartLog_pem3.oem3 (.const:ti_sysbios_heaps_HeapMem_Object__table__C)

.const:ti_sysbios_heaps_HeapMem_reqAlign__C 
*          0    000004c4    00000004     
                  000004c4    00000004     appBLE_UartLog_pem3.oem3 (.const:ti_sysbios_heaps_HeapMem_reqAlign__C)

.const:ti_sysbios_knl_Clock_serviceMargin__C 
*          0    000004c8    00000004     
                  000004c8    00000004     appBLE_UartLog_pem3.oem3 (.const:ti_sysbios_knl_Clock_serviceMargin__C)

.const:ti_sysbios_knl_Mailbox_Object__count__C 
*          0    000004cc    00000004     
                  000004cc    00000004     appBLE_UartLog_pem3.oem3 (.const:ti_sysbios_knl_Mailbox_Object__count__C)

.const:ti_sysbios_knl_Mailbox_Object__table__C 
*          0    000004d0    00000004     
                  000004d0    00000004     appBLE_UartLog_pem3.oem3 (.const:ti_sysbios_knl_Mailbox_Object__table__C)

.const:ti_sysbios_knl_Queue_Object__count__C 
*          0    000004d4    00000004     
                  000004d4    00000004     appBLE_UartLog_pem3.oem3 (.const:ti_sysbios_knl_Queue_Object__count__C)

.const:ti_sysbios_knl_Queue_Object__table__C 
*          0    000004d8    00000004     
                  000004d8    00000004     appBLE_UartLog_pem3.oem3 (.const:ti_sysbios_knl_Queue_Object__table__C)

.const:ti_sysbios_knl_Swi_Object__count__C 
*          0    000004dc    00000004     
                  000004dc    00000004     appBLE_UartLog_pem3.oem3 (.const:ti_sysbios_knl_Swi_Object__count__C)

.const:ti_sysbios_knl_Swi_Object__table__C 
*          0    000004e0    00000004     
                  000004e0    00000004     appBLE_UartLog_pem3.oem3 (.const:ti_sysbios_knl_Swi_Object__table__C)

.const:ti_sysbios_knl_Swi_numPriorities__C 
*          0    000004e4    00000004     
                  000004e4    00000004     appBLE_UartLog_pem3.oem3 (.const:ti_sysbios_knl_Swi_numPriorities__C)

.const:ti_sysbios_knl_Task_Object__count__C 
*          0    000004e8    00000004     
                  000004e8    00000004     appBLE_UartLog_pem3.oem3 (.const:ti_sysbios_knl_Task_Object__count__C)

.const:ti_sysbios_knl_Task_Object__table__C 
*          0    000004ec    00000004     
                  000004ec    00000004     appBLE_UartLog_pem3.oem3 (.const:ti_sysbios_knl_Task_Object__table__C)

.const:ti_sysbios_knl_Task_allBlockedFunc__C 
*          0    000004f0    00000004     
                  000004f0    00000004     appBLE_UartLog_pem3.oem3 (.const:ti_sysbios_knl_Task_allBlockedFunc__C)

.const:ti_sysbios_knl_Task_defaultStackHeap__C 
*          0    000004f4    00000004     
                  000004f4    00000004     appBLE_UartLog_pem3.oem3 (.const:ti_sysbios_knl_Task_defaultStackHeap__C)

.const:ti_sysbios_knl_Task_defaultStackSize__C 
*          0    000004f8    00000004     
                  000004f8    00000004     appBLE_UartLog_pem3.oem3 (.const:ti_sysbios_knl_Task_defaultStackSize__C)

.const:ti_sysbios_knl_Task_numConstructedTasks__C 
*          0    000004fc    00000004     
                  000004fc    00000004     appBLE_UartLog_pem3.oem3 (.const:ti_sysbios_knl_Task_numConstructedTasks__C)

.text.3    0    00000500    00000002     
                  00000500    00000002     drivers_cc26xxware.aem3 : SPICC26XXDMA.oem3 (.text:SPICC26XXDMA_serviceISR)

.const:ti_sysbios_family_arm_cc26xx_Timer_Module__id__C 
*          0    00000502    00000002     
                  00000502    00000002     appBLE_UartLog_pem3.oem3 (.const:ti_sysbios_family_arm_cc26xx_Timer_Module__id__C)

.const:ti_sysbios_family_arm_cc26xx_TimestampProvider_useClockTimer__C 
*          0    00000504    00000002     
                  00000504    00000002     appBLE_UartLog_pem3.oem3 (.const:ti_sysbios_family_arm_cc26xx_TimestampProvider_useClockTimer__C)

.const:ti_sysbios_family_arm_m3_Hwi_Module__id__C 
*          0    00000506    00000002     
                  00000506    00000002     appBLE_UartLog_pem3.oem3 (.const:ti_sysbios_family_arm_m3_Hwi_Module__id__C)

.const:ti_sysbios_gates_GateHwi_Module__id__C 
*          0    00000508    00000002     
                  00000508    00000002     appBLE_UartLog_pem3.oem3 (.const:ti_sysbios_gates_GateHwi_Module__id__C)

.const:ti_sysbios_gates_GateMutex_Module__id__C 
*          0    0000050a    00000002     
                  0000050a    00000002     appBLE_UartLog_pem3.oem3 (.const:ti_sysbios_gates_GateMutex_Module__id__C)

.const:ti_sysbios_heaps_HeapMem_Module__id__C 
*          0    0000050c    00000002     
                  0000050c    00000002     appBLE_UartLog_pem3.oem3 (.const:ti_sysbios_heaps_HeapMem_Module__id__C)

.const:ti_sysbios_knl_Task_initStackFlag__C 
*          0    0000050e    00000002     
                  0000050e    00000002     appBLE_UartLog_pem3.oem3 (.const:ti_sysbios_knl_Task_initStackFlag__C)

.const:ti_sysbios_knl_Clock_tickMode__C 
*          0    00000510    00000001     
                  00000510    00000001     appBLE_UartLog_pem3.oem3 (.const:ti_sysbios_knl_Clock_tickMode__C)

.const:xdc_runtime_Startup_firstFxns__C 
*          0    00000514    00000008     
                  00000514    00000008     appBLE_UartLog_pem3.oem3 (.const:xdc_runtime_Startup_firstFxns__C)

.const:xdc_runtime_Startup_lastFxns__C 
*          0    0000051c    00000008     
                  0000051c    00000008     appBLE_UartLog_pem3.oem3 (.const:xdc_runtime_Startup_lastFxns__C)

.const:xdc_runtime_Assert_E_assertFailed__C 
*          0    00000524    00000004     
                  00000524    00000004     appBLE_UartLog_pem3.oem3 (.const:xdc_runtime_Assert_E_assertFailed__C)

.const:xdc_runtime_Error_E_memory__C 
*          0    00000528    00000004     
                  00000528    00000004     appBLE_UartLog_pem3.oem3 (.const:xdc_runtime_Error_E_memory__C)

.const:xdc_runtime_Error_policyFxn__C 
*          0    0000052c    00000004     
                  0000052c    00000004     appBLE_UartLog_pem3.oem3 (.const:xdc_runtime_Error_policyFxn__C)

.const:xdc_runtime_IGateProvider_Interface__BASE__C 
*          0    00000530    00000004     
                  00000530    00000004     appBLE_UartLog_pem3.oem3 (.const:xdc_runtime_IGateProvider_Interface__BASE__C)

.const:xdc_runtime_IHeap_Interface__BASE__C 
*          0    00000534    00000004     
                  00000534    00000004     appBLE_UartLog_pem3.oem3 (.const:xdc_runtime_IHeap_Interface__BASE__C)

.const:xdc_runtime_IModule_Interface__BASE__C 
*          0    00000538    00000004     
                  00000538    00000004     appBLE_UartLog_pem3.oem3 (.const:xdc_runtime_IModule_Interface__BASE__C)

.const:xdc_runtime_Main_Module__diagsEnabled__C 
*          0    0000053c    00000004     
                  0000053c    00000004     appBLE_UartLog_pem3.oem3 (.const:xdc_runtime_Main_Module__diagsEnabled__C)

.const:xdc_runtime_Main_Module__diagsIncluded__C 
*          0    00000540    00000004     
                  00000540    00000004     appBLE_UartLog_pem3.oem3 (.const:xdc_runtime_Main_Module__diagsIncluded__C)

.const:xdc_runtime_Main_Module__diagsMask__C 
*          0    00000544    00000004     
                  00000544    00000004     appBLE_UartLog_pem3.oem3 (.const:xdc_runtime_Main_Module__diagsMask__C)

.const:xdc_runtime_Memory_defaultHeapInstance__C 
*          0    00000548    00000004     
                  00000548    00000004     appBLE_UartLog_pem3.oem3 (.const:xdc_runtime_Memory_defaultHeapInstance__C)

.const:xdc_runtime_Startup_execImpl__C 
*          0    0000054c    00000004     
                  0000054c    00000004     appBLE_UartLog_pem3.oem3 (.const:xdc_runtime_Startup_execImpl__C)

.const:xdc_runtime_Startup_maxPasses__C 
*          0    00000550    00000004     
                  00000550    00000004     appBLE_UartLog_pem3.oem3 (.const:xdc_runtime_Startup_maxPasses__C)

.const:xdc_runtime_Startup_sfxnRts__C 
*          0    00000554    00000004     
                  00000554    00000004     appBLE_UartLog_pem3.oem3 (.const:xdc_runtime_Startup_sfxnRts__C)

.const:xdc_runtime_Startup_sfxnTab__C 
*          0    00000558    00000004     
                  00000558    00000004     appBLE_UartLog_pem3.oem3 (.const:xdc_runtime_Startup_sfxnTab__C)

.const:xdc_runtime_Startup_startModsFxn__C 
*          0    0000055c    00000004     
                  0000055c    00000004     appBLE_UartLog_pem3.oem3 (.const:xdc_runtime_Startup_startModsFxn__C)

.const:xdc_runtime_SysCallback_abortFxn__C 
*          0    00000560    00000004     
                  00000560    00000004     appBLE_UartLog_pem3.oem3 (.const:xdc_runtime_SysCallback_abortFxn__C)

.const:xdc_runtime_SysCallback_exitFxn__C 
*          0    00000564    00000004     
                  00000564    00000004     appBLE_UartLog_pem3.oem3 (.const:xdc_runtime_SysCallback_exitFxn__C)

.const:xdc_runtime_System_abortFxn__C 
*          0    00000568    00000004     
                  00000568    00000004     appBLE_UartLog_pem3.oem3 (.const:xdc_runtime_System_abortFxn__C)

.const:xdc_runtime_System_exitFxn__C 
*          0    0000056c    00000004     
                  0000056c    00000004     appBLE_UartLog_pem3.oem3 (.const:xdc_runtime_System_exitFxn__C)

.const:xdc_runtime_System_maxAtexitHandlers__C 
*          0    00000570    00000004     
                  00000570    00000004     appBLE_UartLog_pem3.oem3 (.const:xdc_runtime_System_maxAtexitHandlers__C)

.const:xdc_runtime_Text_charTab__C 
*          0    00000574    00000004     
                  00000574    00000004     appBLE_UartLog_pem3.oem3 (.const:xdc_runtime_Text_charTab__C)

.const:xdc_runtime_Text_nameEmpty__C 
*          0    00000578    00000004     
                  00000578    00000004     appBLE_UartLog_pem3.oem3 (.const:xdc_runtime_Text_nameEmpty__C)

.const:xdc_runtime_Text_nameStatic__C 
*          0    0000057c    00000004     
                  0000057c    00000004     appBLE_UartLog_pem3.oem3 (.const:xdc_runtime_Text_nameStatic__C)

.const:xdc_runtime_Text_nameUnknown__C 
*          0    00000580    00000004     
                  00000580    00000004     appBLE_UartLog_pem3.oem3 (.const:xdc_runtime_Text_nameUnknown__C)

.const:xdc_runtime_Main_Module__id__C 
*          0    00000584    00000002     
                  00000584    00000002     appBLE_UartLog_pem3.oem3 (.const:xdc_runtime_Main_Module__id__C)

.const:xdc_runtime_Memory_Module__id__C 
*          0    00000586    00000002     
                  00000586    00000002     appBLE_UartLog_pem3.oem3 (.const:xdc_runtime_Memory_Module__id__C)

.const:xdc_runtime_Text_charCnt__C 
*          0    00000588    00000002     
                  00000588    00000002     appBLE_UartLog_pem3.oem3 (.const:xdc_runtime_Text_charCnt__C)

.const:xdc_runtime_Text_isLoaded__C 
*          0    0000058a    00000002     
                  0000058a    00000002     appBLE_UartLog_pem3.oem3 (.const:xdc_runtime_Text_isLoaded__C)

.const:xdc_runtime_Error_policy__C 
*          0    0000058c    00000001     
                  0000058c    00000001     appBLE_UartLog_pem3.oem3 (.const:xdc_runtime_Error_policy__C)

.const:ti_sysbios_rom_ROM_AONRTCChannelEnable 
*          0    00000590    00000004     
                  00000590    00000004     appBLE_UartLog_pem3.oem3 (.const:ti_sysbios_rom_ROM_AONRTCChannelEnable)

.const:ti_sysbios_rom_ROM_AONRTCCompareValueSet 
*          0    00000594    00000004     
                  00000594    00000004     appBLE_UartLog_pem3.oem3 (.const:ti_sysbios_rom_ROM_AONRTCCompareValueSet)

.const:ti_sysbios_rom_ROM_AONRTCCurrentCompareValueGet 
*          0    00000598    00000004     
                  00000598    00000004     appBLE_UartLog_pem3.oem3 (.const:ti_sysbios_rom_ROM_AONRTCCurrentCompareValueGet)

.const:ti_sysbios_rom_ROM_AONRTCEventClear 
*          0    0000059c    00000004     
                  0000059c    00000004     appBLE_UartLog_pem3.oem3 (.const:ti_sysbios_rom_ROM_AONRTCEventClear)

.const:ti_sysbios_rom_ROM_ti_sysbios_family_arm_cc26xx_Timer_getCount64__E 
*          0    000005a0    00000004     
                  000005a0    00000004     appBLE_UartLog_pem3.oem3 (.const:ti_sysbios_rom_ROM_ti_sysbios_family_arm_cc26xx_Timer_getCount64__E)

.const:ti_sysbios_rom_ROM_ti_sysbios_family_arm_cc26xx_Timer_getCurrentTick__E 
*          0    000005a4    00000004     
                  000005a4    00000004     appBLE_UartLog_pem3.oem3 (.const:ti_sysbios_rom_ROM_ti_sysbios_family_arm_cc26xx_Timer_getCurrentTick__E)

.const:ti_sysbios_rom_ROM_ti_sysbios_family_arm_cc26xx_Timer_getMaxTicks__E 
*          0    000005a8    00000004     
                  000005a8    00000004     appBLE_UartLog_pem3.oem3 (.const:ti_sysbios_rom_ROM_ti_sysbios_family_arm_cc26xx_Timer_getMaxTicks__E)

.const:ti_sysbios_rom_ROM_ti_sysbios_family_arm_cc26xx_Timer_initDevice__I 
*          0    000005ac    00000004     
                  000005ac    00000004     appBLE_UartLog_pem3.oem3 (.const:ti_sysbios_rom_ROM_ti_sysbios_family_arm_cc26xx_Timer_initDevice__I)

.const:ti_sysbios_rom_ROM_ti_sysbios_family_arm_cc26xx_Timer_setNextTick__E 
*          0    000005b0    00000004     
                  000005b0    00000004     appBLE_UartLog_pem3.oem3 (.const:ti_sysbios_rom_ROM_ti_sysbios_family_arm_cc26xx_Timer_setNextTick__E)

.const:ti_sysbios_rom_ROM_ti_sysbios_family_arm_cc26xx_Timer_setThreshold__I 
*          0    000005b4    00000004     
                  000005b4    00000004     appBLE_UartLog_pem3.oem3 (.const:ti_sysbios_rom_ROM_ti_sysbios_family_arm_cc26xx_Timer_setThreshold__I)

.const:ti_sysbios_rom_ROM_ti_sysbios_family_arm_cc26xx_Timer_start__E 
*          0    000005b8    00000004     
                  000005b8    00000004     appBLE_UartLog_pem3.oem3 (.const:ti_sysbios_rom_ROM_ti_sysbios_family_arm_cc26xx_Timer_start__E)

.const:ti_sysbios_rom_ROM_ti_sysbios_family_arm_cc26xx_TimestampProvider_get32__E 
*          0    000005bc    00000004     
                  000005bc    00000004     appBLE_UartLog_pem3.oem3 (.const:ti_sysbios_rom_ROM_ti_sysbios_family_arm_cc26xx_TimestampProvider_get32__E)

.const:ti_sysbios_rom_ROM_xdc_runtime_Startup_getState__I 
*          0    000005c0    00000004     
                  000005c0    00000004     appBLE_UartLog_pem3.oem3 (.const:ti_sysbios_rom_ROM_xdc_runtime_Startup_getState__I)

.const:ti_sysbios_rom_ROM_xdc_runtime_System_SupportProxy_abort__E 
*          0    000005c4    00000004     
                  000005c4    00000004     appBLE_UartLog_pem3.oem3 (.const:ti_sysbios_rom_ROM_xdc_runtime_System_SupportProxy_abort__E)

.const:ti_sysbios_rom_ROM_xdc_runtime_System_SupportProxy_exit__E 
*          0    000005c8    00000004     
                  000005c8    00000004     appBLE_UartLog_pem3.oem3 (.const:ti_sysbios_rom_ROM_xdc_runtime_System_SupportProxy_exit__E)

.const:ti_sysbios_gates_GateMutex_Instance_State_sem__O 
*          0    000005cc    00000004     
                  000005cc    00000004     appBLE_UartLog_pem3.oem3 (.const:ti_sysbios_gates_GateMutex_Instance_State_sem__O)

.const:ti_sysbios_knl_Clock_Module_State_clockQ__O 
*          0    000005d0    00000004     
                  000005d0    00000004     appBLE_UartLog_pem3.oem3 (.const:ti_sysbios_knl_Clock_Module_State_clockQ__O)

.const:ti_sysbios_knl_Mailbox_Instance_State_dataQue__O 
*          0    000005d4    00000004     
                  000005d4    00000004     appBLE_UartLog_pem3.oem3 (.const:ti_sysbios_knl_Mailbox_Instance_State_dataQue__O)

.const:ti_sysbios_knl_Mailbox_Instance_State_dataSem__O 
*          0    000005d8    00000004     
                  000005d8    00000004     appBLE_UartLog_pem3.oem3 (.const:ti_sysbios_knl_Mailbox_Instance_State_dataSem__O)

.const:ti_sysbios_knl_Mailbox_Instance_State_freeQue__O 
*          0    000005dc    00000004     
                  000005dc    00000004     appBLE_UartLog_pem3.oem3 (.const:ti_sysbios_knl_Mailbox_Instance_State_freeQue__O)

.const:ti_sysbios_knl_Mailbox_Instance_State_freeSem__O 
*          0    000005e0    00000004     
                  000005e0    00000004     appBLE_UartLog_pem3.oem3 (.const:ti_sysbios_knl_Mailbox_Instance_State_freeSem__O)

.const:ti_sysbios_knl_Semaphore_Instance_State_pendQ__O 
*          0    000005e4    00000004     
                  000005e4    00000004     appBLE_UartLog_pem3.oem3 (.const:ti_sysbios_knl_Semaphore_Instance_State_pendQ__O)

.const:ti_sysbios_knl_Task_Module_State_inactiveQ__O 
*          0    000005e8    00000004     
                  000005e8    00000004     appBLE_UartLog_pem3.oem3 (.const:ti_sysbios_knl_Task_Module_State_inactiveQ__O)

.text.4    0    000005ec    0000c044     
                  000005ec    000005ce     driverlib.lib : setup.obj (.text:HapiTrimDeviceShutDown)
                  00000bba    00000002     rtsv7M3_T_le_eabi.lib : i_div0.obj (.text)
                  00000bbc    000004e4     ProjectZero.obj (.text:ProjectZero_init)
                  000010a0    00000440     sysbios.aem3 : mangled__BIOS_lib.obj (.text:xdc_runtime_System_doPrint__I)
                  000014e0    0000042c     Data_Service.obj (.text:Data_Service_WriteAttrCB)
                  0000190c    00000380     Button_Service.obj (.text:ButtonService_SetParameter)
                  00001c8c    00000378     Data_Service.obj (.text:DataService_SetParameter)
                  00002004    00000374     ProjectZero.obj (.text:SPI_transferCallback)
                  00002378    0000036c     ProjectZero.obj (.text:user_processGapStateChangeEvt)
                  000026e4    00000360     LED_Service.obj (.text:LED_Service_WriteAttrCB)
                  00002a44    0000034c     sysbios.aem3 : mangled__BIOS_lib.obj (.text:ti_sysbios_family_arm_cc26xx_Power_auxISR__E)
                  00002d90    0000032c     peripheral.obj (.text:GAPRole_SetParameter)
                  000030bc    000002f8     sysbios.aem3 : mangled__BIOS_lib.obj (.text:ti_sysbios_family_arm_cc26xx_Power_sleep__E)
                  000033b4    000002d4     peripheral.obj (.text:gapRole_processGAPMsg)
                  00003688    00000280     Data_Service.obj (.text:Data_Service_ReadAttrCB)
                  00003908    00000274     Button_Service.obj (.text:Button_Service_ReadAttrCB)
                  00003b7c    00000270     LED_Service.obj (.text:LED_Service_ReadAttrCB)
                  00003dec    00000268     ProjectZero.obj (.text:ProjectZero_processGATTMsg)
                  00004054    00000264     LED_Service.obj (.text:LedService_SetParameter)
                  000042b8    00000264     ProjectZero.obj (.text:user_LedService_ValueChangeHandler)
                  0000451c    00000200     ProjectZero.obj (.text:user_DataService_ValueChangeHandler)
                  0000471c    000001f4     rtsv7M3_T_le_eabi.lib : ull_div_t2.obj (.text)
                  00004910    000001f0     ProjectZero.obj (.text:user_gapBondMgr_pairStateCB)
                  00004b00    000001d4     Button_Service.obj (.text:Button_Service_WriteAttrCB)
                  00004cd4    000001c0     peripheral.obj (.text:GAPRole_GetParameter)
                  00004e94    000001aa     driverlib.lib : sys_ctrl.obj (.text:SysCtrlSetRechargeBeforePowerDown)
                  0000503e    00000002     appBLE_UartLog_pem3.oem3 (.text:ti_sysbios_BIOS_nullFunc__I)
                  00005040    000001a4     drivers_cc26xxware.aem3 : PINCC26XX.oem3 (.text:PIN_init)
                  000051e4    0000018c     ProjectZero.obj (.text:user_ButtonService_CfgChangeHandler)
                  00005370    00000188     ProjectZero.obj (.text:ProjectZero_freeAttRsp)
                  000054f8    00000178     uart_logs.obj (.text:uartLog_doPrint)
                  00005670    00000174     drivers_cc26xxware.aem3 : UARTCC26XX.oem3 (.text:UARTCC26XX_open)
                  000057e4    00000158     ProjectZero.obj (.text:user_processApplicationMessage)
                  0000593c    00000150     devinfoservice.obj (.text:DevInfo_SetParameter)
                  00005a8c    00000150     drivers_cc26xxware.aem3 : SPICC26XXDMA.oem3 (.text:SPICC26XXDMA_initIO)
                  00005bdc    00000148     peripheral.obj (.text:gapRole_taskFxn)
                  00005d24    00000138     Button_Service.obj (.text:ButtonService_RegisterAppCBs)
                  00005e5c    00000134     Data_Service.obj (.text:DataService_RegisterAppCBs)
                  00005f90    00000130     LED_Service.obj (.text:LedService_RegisterAppCBs)
                  000060c0    00000130     sysbios.aem3 : mangled__BIOS_lib.obj (.text:xdc_runtime_Text_putSite__E)
                  000061f0    00000128     drivers_cc26xxware.aem3 : SPICC26XXDMA.oem3 (.text:SPICC26XXDMA_open)
                  00006318    00000124     ProjectZero.obj (.text:user_handleButtonPress)
                  0000643c    00000120     ProjectZero.obj (.text:user_DataService_CfgChangeHandler)
                  0000655c    00000108     Button_Service.obj (.text:ButtonService_AddService)
                  00006664    00000108     ProjectZero.obj (.text:swiFunc)
                  0000676c    00000104     ProjectZero.obj (.text:ProjectZero_sendAttRsp)
                  00006870    00000104     sysbios.aem3 : mangled__BIOS_lib.obj (.text:calibrateRcoscHf1$28)
                  00006974    00000100     drivers_cc26xxware.aem3 : SPICC26XXDMA.oem3 (.text:SPICC26XXDMA_transferCancel)
                  00006a74    00000100                             : UARTCC26XX.oem3 (.text:UARTCC26XX_write)
                  00006b74    00000100     peripheral.obj (.text:gapRole_init)
                  00006c74    000000fc     drivers_cc26xxware.aem3 : SPICC26XXDMA.oem3 (.text:SPICC26XXDMA_hwiFxn)
                  00006d70    000000fc     rtsv7M3_T_le_eabi.lib : fd_mul_t2.obj (.text)
                  00006e6c    000000fc     sysbios.aem3 : mangled__BIOS_lib.obj (.text:xdc_runtime_Text_putLab__E)
                  00006f68    000000f8                  : mangled__BIOS_lib.obj (.text:ti_sysbios_family_arm_cc26xx_Power_startFirstMeasurement__E)
                  00007060    000000f8     ProjectZero.obj (.text:user_service_ValueChangeCB)
                  00007158    000000f8     appBLE_UartLog_pem3.oem3 (.text:xdc_runtime_System_printfExtend__I)
                  00007250    000000f0     sysbios.aem3 : mangled__BIOS_lib.obj (.text:ti_sysbios_family_arm_cc26xx_Power_standbyPolicy__E)
                  00007340    000000f0     ProjectZero.obj (.text:user_service_CfgChangeCB)
                  00007430    000000ea     ICall.obj (.text:ICall_primWaitMatch)
                  0000751a    000000e8     drivers_cc26xxware.aem3 : UARTCC26XX.oem3 (.text:UARTCC26XX_hwiIntFxn)
                  00007602    00000002     sysbios.aem3 : mangled__BIOS_lib.obj (.text:ti_sysbios_family_arm_cc26xx_Power_defaultClockFunc__E)
                  00007604    000000e4     Data_Service.obj (.text:DataService_AddService)
                  000076e8    000000e4     ProjectZero.obj (.text:buttonCallbackFxn)
                  000077cc    000000e0     devinfoservice.obj (.text:devInfo_ReadAttrCB)
                  000078ac    000000d8     sysbios.aem3 : mangled__BIOS_lib.obj (.text:ti_sysbios_family_arm_cc26xx_Power_setDependency__E)
                  00007984    000000d0     drivers_cc26xxware.aem3 : SPICC26XXDMA.oem3 (.text:SPICC26XXDMA_configDMA)
                  00007a54    000000d0     sysbios.aem3 : mangled__BIOS_lib.obj (.text:ti_sysbios_family_arm_cc26xx_Power_releaseDependency__E)
                  00007b24    000000c8     drivers_cc26xxware.aem3 : UARTCC26XX.oem3 (.text:UARTCC26XX_initHw)
                  00007bec    000000c0                             : SPICC26XXDMA.oem3 (.text:SPICC26XXDMA_transfer)
                  00007cac    000000c0                             : UARTCC26XX.oem3 (.text:UARTCC26XX_read)
                  00007d6c    000000bc     ProjectZero.obj (.text:user_gapStateChangeCB)
                  00007e28    000000b8     drivers_cc26xxware.aem3 : PINCC26XX.oem3 (.text:PINCC26XX_setIoCfg)
                  00007ee0    000000b4     LED_Service.obj (.text:LedService_AddService)
                  00007f94    000000b4     ProjectZero.obj (.text:buttonDebounceSwiFxn)
                  00008048    000000b4     driverlib.lib : setup.obj (.text:trimDevice)
                  000080fc    000000b0     gattservapp_util.obj (.text:GATTServApp_ProcessCharCfg)
                  000081ac    000000b0     sysbios.aem3 : mangled__BIOS_lib.obj (.text:ti_sysbios_knl_Clock_workFuncDynamic__E)
                  0000825c    000000a8     peripheral.obj (.text:gapRole_startConnUpdate)
                  00008304    000000a4     sysbios.aem3 : mangled__BIOS_lib.obj (.text:ti_sysbios_family_arm_cc26xx_Power_initiateCalibration__E)
                  000083a8    000000a0     auto_init.aem3 : auto_init.oem3 (.text)
                  00008448    0000009c     ICall.obj (.text:ICall_heapMalloc)
                  000084e4    0000009c     ICall.obj (.text:ICall_primSetTimer)
                  00008580    0000009c     rtsv7M3_T_le_eabi.lib : memcpy_t2.obj (.text)
                  0000861c    00000098     drivers_cc26xxware.aem3 : UARTCC26XX.oem3 (.text:UARTCC26XX_initIO)
                  000086b4    00000094     driverlib.lib : osc.obj (.text:OSCHF_GetStartupTime)
                  00008748    00000094     drivers_cc26xxware.aem3 : UARTCC26XX.oem3 (.text:writeFinishedDoCallback)
                  000087dc    00000090                             : PINCC26XX.oem3 (.text:PIN_open)
                  0000886c    00000090     ProjectZero.obj (.text:ProjectZero_taskFxn)
                  000088fc    0000008c     drivers_cc26xxware.aem3 : UARTCC26XX.oem3 (.text:UARTCC26XX_writeCancel)
                  00008988    0000008c     sysbios.aem3 : mangled__BIOS_lib.obj (.text:ti_sysbios_family_arm_cc26xx_Power_LF_clockFunc__E)
                  00008a14    0000008c                  : mangled__BIOS_lib.obj (.text:ti_sysbios_family_arm_cc26xx_Power_Module_startup__E)
                  00008aa0    0000008c     uart_logs.obj (.text:uartLog_outputFxn)
                  00008b2c    00000088     ICall.obj (.text:ICall_createRemoteTasks)
                  00008bb4    00000088     sysbios.aem3 : mangled__BIOS_lib.obj (.text:ti_sysbios_family_arm_cc26xx_Timer_start__E)
                  00008c3c    00000088     uart_logs.obj (.text:uartLog_flush)
                  00008cc4    00000080     drivers_cc26xxware.aem3 : UARTCC26XX.oem3 (.text:writeTxFifoFlush)
                  00008d44    0000007e     gattservapp_util.obj (.text:gattServApp_SendNotiInd)
                  00008dc2    0000007c     driverlib.lib : chipinfo.obj (.text:ChipInfo_GetHwRevision)
                  00008e3e    0000007a     rtsv7M3_T_le_eabi.lib : memset_t2.obj (.text)
                  00008eb8    00000078     ICallCC2650.obj (.text:ICallPlatform_pwrUpdActivityCounter)
                  00008f30    00000078     ICall.obj (.text:ICall_primSend)
                  00008fa8    00000078     ProjectZero.obj (.text:Util_convertArrayToHexString)
                  00009020    00000074     ICall.obj (.text:ICall_newTask)
                  00009094    00000074     drivers_cc26xxware.aem3 : SPICC26XXDMA.oem3 (.text:SPICC26XXDMA_control)
                  00009108    00000074                             : UARTCC26XX.oem3 (.text:UARTCC26XX_close)
                  0000917c    00000070     peripheral.obj (.text:GAPRole_SendUpdateParam)
                  000091ec    00000070     drivers_cc26xxware.aem3 : UARTCC26XX.oem3 (.text:UARTCC26XX_readCancel)
                  0000925c    0000006e     driverlib.lib : osc.obj (.text:OSCHF_AttemptToSwitchToXosc)
                  000092ca    00000002     sysbios.aem3 : mangled__BIOS_lib.obj (.text:ti_sysbios_family_arm_cc26xx_Power_defaultNotifyTrapFunc__E)
                  000092cc    0000006c     drivers_cc26xxware.aem3 : PINCC26XX.oem3 (.text:PIN_add)
                  00009338    0000006a     rtsv7M3_T_le_eabi.lib : copy_decompress_rle.obj (.text)
                  000093a2    00000002     appBLE_UartLog_pem3.oem3 (.text:ti_sysbios_rom_cortexm_cc26xx_CC26xx_badRomRevision__E)
                  000093a4    00000068     ICall.obj (.text:ICall_primEnroll)
                  0000940c    00000066     driverlib.lib : sys_ctrl.obj (.text:SysCtrl_DCDC_VoltageConditionalControl)
                  00009472    00000062                   : sys_ctrl.obj (.text:SysCtrlAdjustRechargeAfterPowerDown)
                  000094d4    00000060     ICallCC2650.obj (.text:ICallPlatform_pwrRegisterNotify)
                  00009534    00000060     ICall.obj (.text:ICall_primThreadServes)
                  00009594    00000060     drivers_cc26xxware.aem3 : SPICC26XXDMA.oem3 (.text:SPICC26XXDMA_initHw)
                  000095f4    00000060     ProjectZero.obj (.text:SPI_Init_PZ)
                  00009654    00000060     appBLE_UartLog_pem3.oem3 (.text:ti_sysbios_family_arm_cc26xx_Power_XOSC_HF_clockFunc__E)
                  000096b4    00000060     sysbios.aem3 : mangled__BIOS_lib.obj (.text:ti_sysbios_family_arm_cc26xx_Timer_setNextTick__E)
                  00009714    0000005c     drivers_cc26xxware.aem3 : PINCC26XX.oem3 (.text:PIN_remove)
                  00009770    0000005c     appBLE_UartLog_pem3.oem3 (.text:xdc_runtime_Startup_getState__I)
                  000097cc    00000058     driverlib.lib : osc.obj (.text:OSCHF_SwitchToRcOscTurnOffXosc)
                  00009824    00000058     drivers_cc26xxware.aem3 : UDMACC26XX.oem3 (.text:UDMACC26XX_open)
                  0000987c    00000058     util.obj (.text:Util_convertBdAddr2Str)
                  000098d4    00000058     sysbios.aem3 : mangled__BIOS_lib.obj (.text:ti_sysbios_family_arm_cc26xx_Power_notify__I)
                  0000992c    00000056     driverlib.lib : ddi.obj (.text:NOROM_DDI16BitfieldWrite)
                  00009982    00000002     sysbios.aem3 : mangled__BIOS_lib.obj (.text:xdc_runtime_SysCallback_defaultAbort)
                  00009984    00000054     Button_Service.obj (.text:Button_Service_findCharParamId)
                  000099d8    00000054     Data_Service.obj (.text:Data_Service_findCharParamId)
                  00009a2c    00000054     gattservapp_util.obj (.text:GATTServApp_ProcessCCCWriteReq)
                  00009a80    00000054     ICall.obj (.text:ICall_primGetEntityId)
                  00009ad4    00000054     ICall.obj (.text:ICall_primRegisterApp)
                  00009b28    00000054     LED_Service.obj (.text:LED_Service_findCharParamId)
                  00009b7c    00000054     util.obj (.text:Util_constructClock)
                  00009bd0    00000054     rtsv7M3_T_le_eabi.lib : exit.obj (.text)
                  00009c24    00000054     ProjectZero.obj (.text:user_enqueueCharDataMsg)
                  00009c78    00000054     sysbios.aem3 : mangled__BIOS_lib.obj (.text:xdc_runtime_Text_visitRope2__I)
                  00009ccc    00000052     ICall.obj (.text:ICall_primWait)
                  00009d1e    00000052     driverlib.lib : osc.obj (.text:NOROM_OSCClockSourceSet)
                  00009d70    00000050     ICallBleAPI.obj (.text:GAP_DeviceInit)
                  00009dc0    00000050     peripheral.obj (.text:gapRole_processStackMsg)
                  00009e10    00000050     drivers_cc26xxware.aem3 : UARTCC26XX.oem3 (.text:startTxFifoEmptyClk)
                  00009e60    0000004e                             : SPICC26XXDMA.oem3 (.text:SPICC26XXDMA_close)
                  00009eae    00000002     sysbios.aem3 : mangled__BIOS_lib.obj (.text:xdc_runtime_SysCallback_defaultExit)
                  00009eb0    0000004c     drivers_cc26xxware.aem3 : PINCC26XX.oem3 (.text:PIN_Isr)
                  00009efc    0000004c     ICallBleAPI.obj (.text:gattIndNoti)
                  00009f48    0000004c     drivers_cc26xxware.aem3 : UARTCC26XX.oem3 (.text:readFinishedDoCallback)
                  00009f94    0000004c     rtsv7M3_T_le_eabi.lib : cpy_tbl.obj (.text)
                  00009fe0    0000004c     sysbios.aem3 : mangled__BIOS_lib.obj (.text:xdc_runtime_Text_xprintf__I)
                  0000a02c    00000048     ICallBleAPI.obj (.text:GAP_UpdateAdvertisingData)
                  0000a074    00000048     drivers_cc26xxware.aem3 : PINCC26XX.oem3 (.text:PIN_setOutputEnable)
                  0000a0bc    00000048     rtsv7M3_T_le_eabi.lib : fd_toi_t2.obj (.text)
                  0000a104    00000048     sysbios.aem3 : mangled__BIOS_lib.obj (.text:xdc_runtime_LoggerCallback_write8__E)
                  0000a14c    00000044     ICallCC2650.obj (.text:ICallPlatform_pwrConfigACAction)
                  0000a190    00000044     ICall.obj (.text:ICall_primCreateSemaphore)
                  0000a1d4    00000044     ICall.obj (.text:ICall_primCreateTask)
                  0000a218    00000044     ProjectZero.obj (.text:Util_getLocalNameStr)
                  0000a25c    00000044     boot.aem3 : boot.oem3 (.text)
                  0000a2a0    00000008     (.tramp.xdc_runtime_System_exit__E.1)
                  0000a2a8    00000044     peripheral.obj (.text:gapRole_HandleParamUpdateNoSuccess)
                  0000a2ec    00000044     sysbios.aem3 : mangled__BIOS_lib.obj (.text:ti_sysbios_family_arm_cc26xx_Timer_initDevice__I)
                  0000a330    00000044                  : mangled__BIOS_lib.obj (.text:xdc_runtime_LoggerCallback_Module_startup__E)
                  0000a374    00000042     driverlib.lib : ddi.obj (.text:NOROM_DDI16BitfieldRead)
                  0000a3b6    00000042     ICallBleAPI.obj (.text:sendWaitMatchValueCS)
                  0000a3f8    00000040     ICallBleAPI.obj (.text:GAPBondMgr_LinkEst)
                  0000a438    00000040     ICallBleAPI.obj (.text:GAP_TerminateLinkReq)
                  0000a478    00000040     ICallBleAPI.obj (.text:GATTServApp_RegisterService)
                  0000a4b8    00000040     ICallBleAPI.obj (.text:ICall_waitMatch)
                  0000a4f8    00000040     rtsv7M3_T_le_eabi.lib : u_divt2.obj (.text)
                  0000a538    00000040     ICallBleAPI.obj (.text:sendWaitMatchCS)
                  0000a578    00000040     appBLE_UartLog_pem3.oem3 (.text:ti_sysbios_family_arm_cc26xx_Power_XOSC_HF)
                  0000a5b8    00000040     sysbios.aem3 : mangled__BIOS_lib.obj (.text:ti_sysbios_family_arm_cc26xx_Power_isStableXOSC_HF__E)
                  0000a5f8    00000040                  : mangled__BIOS_lib.obj (.text:ti_sysbios_family_arm_cc26xx_Timer_getCurrentTick__E)
                  0000a638    00000040     ProjectZero.obj (.text:user_enqueueRawAppMsg)
                  0000a678    0000003e     driverlib.lib : osc.obj (.text:NOROM_OSCInterfaceEnable)
                  0000a6b6    0000003e     ICallBleAPI.obj (.text:gapSendParamAndPtrCmd)
                  0000a6f4    0000003c     peripheral.obj (.text:GAPRole_createTask)
                  0000a730    00000008     (.tramp.ti_sysbios_knl_Task_construct.1)
                  0000a738    0000003c     ICallBleAPI.obj (.text:GAP_GetParamValue)
                  0000a774    0000003c     ICall.obj (.text:ICall_init)
                  0000a7b0    0000003c     drivers_cc26xxware.aem3 : PINCC26XX.oem3 (.text:PINCC26XX_getConfig)
                  0000a7ec    0000003c     ProjectZero.obj (.text:ProjectZero_createTask)
                  0000a828    0000003c     ICallBleAPI.obj (.text:hciSendParamsCmd)
                  0000a864    0000003c     ICallBleAPI.obj (.text:profileSetParameter)
                  0000a8a0    0000003c     sysbios.aem3 : mangled__BIOS_lib.obj (.text:ti_sysbios_family_arm_cc26xx_Power_releaseConstraint__E)
                  0000a8dc    00000038     ICallBleAPI.obj (.text:GAPBondMgr_PasscodeRsp)
                  0000a914    00000038     ICallBleAPI.obj (.text:GAPBondMgr_SetParameter)
                  0000a94c    00000038     gattservapp_util.obj (.text:GATTServApp_InitCharCfg)
                  0000a984    00000038     ICallBleAPI.obj (.text:GATT_SendRsp)
                  0000a9bc    00000038     ICall.obj (.text:ICall_heapFree)
                  0000a9f4    00000038     ICall.obj (.text:ICall_heapInit)
                  0000aa2c    00000038     ICall.obj (.text:ICall_primGetMaxMSecs)
                  0000aa64    00000038     ICall.obj (.text:ICall_searchTask)
                  0000aa9c    00000038     driverlib.lib : osc.obj (.text:OSCHF_TurnOnXosc)
                  0000aad4    00000038     drivers_cc26xxware.aem3 : PINCC26XX.oem3 (.text:PIN_setInterrupt)
                  0000ab0c    00000038                             : PINCC26XX.oem3 (.text:PIN_setOutputValue)
                  0000ab44    00000038                             : SPICC26XXDMA.oem3 (.text:SPICC26XXDMA_csnCallback)
                  0000ab7c    00000038     ProjectZero.obj (.text:SW_interrupt_init)
                  0000abb4    00000008     (.tramp.ti_sysbios_knl_Swi_Params__init__S.1)
                  0000abbc    00000008     (.tramp.xdc_runtime_Error_init__E.1)
                  0000abc4    00000008     (.tramp.ti_sysbios_knl_Swi_create.1)
                  0000abcc    00000038     ICallBleAPI.obj (.text:linkDB_NumConns)
                  0000ac04    00000038     main.obj (.text:main)
                  0000ac3c    00000008     (.tramp.ti_sysbios_BIOS_start__E.1)
                  0000ac44    00000038     ICallBleAPI.obj (.text:osal_snv_read)
                  0000ac7c    00000038     ICallBleAPI.obj (.text:osal_snv_write)
                  0000acb4    00000038     drivers_cc26xxware.aem3 : UARTCC26XX.oem3 (.text:readData)
                  0000acec    00000038     sysbios.aem3 : mangled__BIOS_lib.obj (.text:ti_sysbios_family_arm_cc26xx_Power_setConstraint__E)
                  0000ad24    00000038                  : mangled__BIOS_lib.obj (.text:ti_sysbios_family_arm_cc26xx_Timer_setThreshold__I)
                  0000ad5c    00000038     drivers_cc26xxware.aem3 : UARTCC26XX.oem3 (.text:writeData)
                  0000ad94    00000038     sysbios.aem3 : mangled__BIOS_lib.obj (.text:xdc_runtime_LoggerCallback_write4__E)
                  0000adcc    00000036     ICallCC2650.obj (.text:ICallPlatform_pwrDispenseImpl)
                  0000ae02    00000036     ICallCC2650.obj (.text:ICallPlatform_pwrRequireImpl)
                  0000ae38    00000036     ICall.obj (.text:ICall_primWaitSemaphore)
                  0000ae6e    00000036     ICallBleAPI.obj (.text:gapSendParamsCmd)
                  0000aea4    00000036     ICallBleAPI.obj (.text:gapSendPtrParamsCmd)
                  0000aeda    00000034     driverlib.lib : chipinfo.obj (.text:ChipInfo_GetChipFamily)
                  0000af0e    00000002     sysbios.aem3 : mangled__BIOS_lib.obj (.text:xdc_runtime_SysCallback_defaultPutch)
                  0000af10    00000034     ICallBleAPI.obj (.text:GAP_SetParamValue)
                  0000af44    00000034     ProjectZero.obj (.text:ICall_fetchServiceMsg)
                  0000af78    00000034     peripheral.obj (.text:ICall_fetchServiceMsg)
                  0000afac    00000034     ICall.obj (.text:ICall_primFetchMsg)
                  0000afe0    00000034     ICall.obj (.text:ICall_searchServiceEntity)
                  0000b014    00000034     drivers_cc26xxware.aem3 : PINCC26XX.oem3 (.text:PIN_setConfig)
                  0000b048    00000034     util.obj (.text:Util_restartClock)
                  0000b07c    00000034     ICallBleAPI.obj (.text:profileAddService)
                  0000b0b0    00000034     ICallBleAPI.obj (.text:registerTask)
                  0000b0e4    00000033     sysbios.aem3 : mangled__BIOS_lib.obj (.text:xdc_runtime_Text_printVisFxn__I)
                  0000b117    00000001     --HOLE-- [fill = 0]
                  0000b118    00000032     ICall.obj (.text:ICall_msgEnqueue)
                  0000b14a    00000032     ICall.obj (.text:ICall_primRegisterISR)
                  0000b17c    00000008     (.tramp.ti_sysbios_hal_Hwi_create.1)
                  0000b184    00000032     ICall.obj (.text:ICall_primRegisterISR_Ext)
                  0000b1b6    00000032     ICallBleAPI.obj (.text:matchGapSetGetParamCS)
                  0000b1e8    00000032     ICallBleAPI.obj (.text:matchGattCmdStatus)
                  0000b21a    00000032     ICallBleAPI.obj (.text:matchUtilNvCS)
                  0000b24c    00000030     ICallCC2650.obj (.text:ICallPlatform_pwrNotify)
                  0000b27c    00000030     ICall.obj (.text:ICall_msecs2Ticks)
                  0000b2ac    00000030     peripheral.obj (.text:gapRole_SetupGAP)
                  0000b2dc    00000030     appBLE_UartLog_pem3.oem3 (.text:ti_sysbios_BIOS_atExitFunc__I)
                  0000b30c    00000008     (.tramp.ti_sysbios_BIOS_setThreadType__E.1)
                  0000b314    00000030     sysbios.aem3 : mangled__BIOS_lib.obj (.text:ti_sysbios_family_arm_cc26xx_Power_registerNotify__E)
                  0000b344    00000008     (.tramp.ti_sysbios_knl_Queue_put__E.1)
                  0000b34c    00000030                  : mangled__BIOS_lib.obj (.text:ti_sysbios_family_arm_cc26xx_Power_switchXOSC_HF__E)
                  0000b37c    00000030     appBLE_UartLog_pem3.oem3 (.text:xdc_runtime_LoggerCallback_Object__create__S)
                  0000b3ac    00000008     (.tramp.xdc_runtime_Core_createObject__I.1)
                  0000b3b4    00000030     sysbios.aem3 : mangled__BIOS_lib.obj (.text:xdc_runtime_LoggerCallback_write2__E)
                  0000b3e4    0000002e     ICallBleAPI.obj (.text:matchProfileAddServiceCS)
                  0000b412    0000002c     driverlib.lib : aon_batmon.obj (.text:AONBatMonTemperatureGetDegC)
                  0000b43e    00000002     --HOLE-- [fill = 0]
                  0000b440    0000002c     peripheral.obj (.text:GAPRole_TerminateConnection)
                  0000b46c    0000002c     ICall.obj (.text:ICall_primEntityId2ServiceId)
                  0000b498    0000002c     ICall.obj (.text:ICall_primFetchServiceMsg)
                  0000b4c4    0000002c     ProjectZero.obj (.text:ICall_registerApp)
                  0000b4f0    0000002c     peripheral.obj (.text:ICall_registerApp)
                  0000b51c    0000002c     ICallBleAPI.obj (.text:ICall_sendServiceMsg)
                  0000b548    0000002c     drivers_cc26xxware.aem3 : PINCC26XX.oem3 (.text:PINCC26XX_setMux)
                  0000b574    0000002a     ICall.obj (.text:ICall_msgDequeue)
                  0000b59e    0000002a     ICall.obj (.text:ICall_msgPrepend)
                  0000b5c8    0000002a     ICall.obj (.text:ICall_primAllocMsg)
                  0000b5f2    0000002a     drivers_cc26xxware.aem3 : UDMACC26XX.oem3 (.text:UDMACC26XX_close)
                  0000b61c    0000002a     ProjectZero.obj (.text:user_updateCharVal)
                  0000b646    00000028     ICallBleAPI.obj (.text:GAPBondMgr_LinkTerm)
                  0000b66e    00000028     ICallBleAPI.obj (.text:GAPBondMgr_Register)
                  0000b696    00000002     --HOLE-- [fill = 0]
                  0000b698    00000028     ICallBleAPI.obj (.text:ICall_allocMsg)
                  0000b6c0    00000028     ICallBleAPI.obj (.text:ICall_getEntityId)
                  0000b6e8    00000028     ICallBleAPI.obj (.text:ICall_getLocalMsgEntityId)
                  0000b710    00000028     Button_Service.obj (.text:ICall_malloc)
                  0000b738    00000028     Data_Service.obj (.text:ICall_malloc)
                  0000b760    00000028     ProjectZero.obj (.text:ICall_malloc)
                  0000b788    00000028     devinfoservice.obj (.text:ICall_malloc)
                  0000b7b0    00000028     ICallBleAPI.obj (.text:ICall_threadServes)
                  0000b7d8    00000028     driverlib.lib : aon_rtc.obj (.text:NOROM_AONRTCCurrentCompareValueGet)
                  0000b800    00000028     gattservapp_util.obj (.text:gattServApp_FindCharCfgItem)
                  0000b828    00000028     ICallBleAPI.obj (.text:matchProfileCS)
                  0000b850    00000028     appBLE_UartLog_pem3.oem3 (.text:ti_sysbios_family_arm_cc26xx_Power_isDependencyActive)
                  0000b878    00000028     sysbios.aem3 : mangled__BIOS_lib.obj (.text:ti_sysbios_family_arm_cc26xx_Timer_getMaxTicks__E)
                  0000b8a0    00000028                  : mangled__BIOS_lib.obj (.text:xdc_runtime_LoggerCallback_write0__E)
                  0000b8c8    00000028                  : mangled__BIOS_lib.obj (.text:xdc_runtime_LoggerCallback_write1__E)
                  0000b8f0    00000028                  : mangled__BIOS_lib.obj (.text:xdc_runtime_System_snprintf__E)
                  0000b918    00000026     gattservapp_util.obj (.text:GATTServApp_WriteCharCfg)
                  0000b93e    00000026     driverlib.lib : osc.obj (.text:NOROM_OSCClockSourceGet)
                  0000b964    00000026     drivers_cc26xxware.aem3 : UARTCC26XX.oem3 (.text:UARTCC26XX_control)
                  0000b98a    00000026     ICallBleAPI.obj (.text:waitMatchCS)
                  0000b9b0    00000024     peripheral.obj (.text:GAPRole_StartDevice)
                  0000b9d4    00000024     ICallBleAPI.obj (.text:HCI_EXT_ConnEventNoticeCmd)
                  0000b9f8    00000024     appBLE_UartLog_pem3.oem3 (.text:ti_sysbios_BIOS_registerRTSLock__I)
                  0000ba1c    00000024     appBLE_UartLog_pem3.oem3 (.text:ti_sysbios_BIOS_removeRTSLock__I)
                  0000ba40    00000024     appBLE_UartLog_pem3.oem3 (.text:ti_sysbios_BIOS_startFunc__I)
                  0000ba64    00000008     (.tramp.xdc_runtime_System_atexit__E.1)
                  0000ba6c    00000008     (.tramp.ti_sysbios_family_arm_cc26xx_Timer_startup__E.1)
                  0000ba74    00000008     (.tramp.ti_sysbios_hal_Hwi_startup__E.1)
                  0000ba7c    00000008     (.tramp.ti_sysbios_knl_Swi_startup__E.1)
                  0000ba84    00000008     (.tramp.ti_sysbios_knl_Task_startup__E.1)
                  0000ba8c    00000024     sysbios.aem3 : mangled__BIOS_lib.obj (.text:ti_sysbios_family_arm_cc26xx_Timer_dynamicStub__E)
                  0000bab0    00000022     ICall.obj (.text:ICall_dispatch)
                  0000bad2    00000022     rtsv7M3_T_le_eabi.lib : memcmp.obj (.text)
                  0000baf4    00000020     gattservapp_util.obj (.text:GATTServApp_FindAttr)
                  0000bb14    00000020     ICallBleAPI.obj (.text:GATT_bm_alloc)
                  0000bb34    00000020     ProjectZero.obj (.text:ICall_free)
                  0000bb54    00000020     devinfoservice.obj (.text:ICall_free)
                  0000bb74    00000020     ICall.obj (.text:ICall_freeMsg)
                  0000bb94    00000020     ICallBleAPI.obj (.text:ICall_freeMsg)
                  0000bbb4    00000020     ProjectZero.obj (.text:ICall_freeMsg)
                  0000bbd4    00000020     peripheral.obj (.text:ICall_freeMsg)
                  0000bbf4    00000020     ICall.obj (.text:ICall_searchService)
                  0000bc14    00000020     ProjectZero.obj (.text:ICall_wait)
                  0000bc34    00000020     peripheral.obj (.text:ICall_wait)
                  0000bc54    00000020     rtsv7M3_T_le_eabi.lib : u_tofd_t2.obj (.text)
                  0000bc74    00000020     appBLE_UartLog_pem3.oem3 (.text:ti_sysbios_BIOS_rtsLock__I)
                  0000bc94    00000008     (.tramp.ti_sysbios_BIOS_RtsGateProxy_enter__E.1)
                  0000bc9c    00000020     sysbios.aem3 : mangled__BIOS_lib.obj (.text:ti_sysbios_family_arm_cc26xx_TimestampProvider_get32__E)
                  0000bcbc    0000001e     ICallBleAPI.obj (.text:GATT_Notification)
                  0000bcda    0000001e     ICall.obj (.text:ICall_primSendServiceMsg)
                  0000bcf8    0000001e     drivers_cc26xxware.aem3 : PINCC26XX.oem3 (.text:PIN_close)
                  0000bd16    0000001e     ICallBleAPI.obj (.text:getStatusValueFromErrNo)
                  0000bd34    0000001e     ICallBleAPI.obj (.text:matchHciCS)
                  0000bd52    00000002     --HOLE-- [fill = 0]
                  0000bd54    0000001c     ICall.obj (.text:ICall_abort)
                  0000bd70    0000001c     ICall.obj (.text:ICall_primService)
                  0000bd8c    0000001c     drivers_cc26xxware.aem3 : PINCC26XX.oem3 (.text:PINCC26XX_setIoCfgMux)
                  0000bda8    0000001c                             : UDMACC26XX.oem3 (.text:UDMACC26XX_initHw)
                  0000bdc4    0000001c     sysbios.aem3 : mangled__BIOS_lib.obj (.text:ti_sysbios_family_arm_cc26xx_Power_unregisterNotify__E)
                  0000bde0    00000008     (.tramp.ti_sysbios_knl_Queue_remove__E.1)
                  0000bde8    0000001c                  : mangled__BIOS_lib.obj (.text:xdc_runtime_LoggerCallback_Instance_init__E)
                  0000be04    0000001a     ICall.obj (.text:ICall_enterCSImpl)
                  0000be1e    0000001a     ICall.obj (.text:ICall_primMalloc)
                  0000be38    0000001a     ICall.obj (.text:ICall_primSetTimerMSecs)
                  0000be52    0000001a     ICallBleAPI.obj (.text:matchGattIndNotiCS)
                  0000be6c    0000001a     ProjectZero.obj (.text:user_gapBondMgr_passcodeCB)
                  0000be86    00000018     driverlib.lib : chipinfo.obj (.text:ChipInfo_GetPackageType)
                  0000be9e    00000002     --HOLE-- [fill = 0]
                  0000bea0    00000018     ICallBleAPI.obj (.text:GATT_bm_free)
                  0000beb8    00000018     ICallBleAPI.obj (.text:GGS_SetParameter)
                  0000bed0    00000018     ICallCC2650.obj (.text:ICallPlatform_pwrDispense)
                  0000bee8    00000018     ICallCC2650.obj (.text:ICallPlatform_pwrRequire)
                  0000bf00    00000018     ICall.obj (.text:ICall_initPrim)
                  0000bf18    00000018     drivers_cc26xxware.aem3 : PINCC26XX.oem3 (.text:PIN_getConfig)
                  0000bf30    00000018                             : SPI.oem3 (.text:SPI_open)
                  0000bf48    00000018                             : UART.oem3 (.text:UART_Params_init)
                  0000bf60    00000018                             : UART.oem3 (.text:UART_open)
                  0000bf78    00000018     peripheral.obj (.text:gapRole_setEvent)
                  0000bf90    00000018     rtsv7M3_T_le_eabi.lib : args_main.obj (.text)
                  0000bfa8    00000018                           : ll_mul_t2.obj (.text)
                  0000bfc0    00000018     appBLE_UartLog_pem3.oem3 (.text:ti_sysbios_BIOS_rtsUnlock__I)
                  0000bfd8    00000008     (.tramp.ti_sysbios_BIOS_RtsGateProxy_leave__E.1)
                  0000bfe0    00000018     appBLE_UartLog_pem3.oem3 (.text:ti_sysbios_family_arm_cc26xx_Power_RFCORECLKS)
                  0000bff8    00000018     sysbios.aem3 : mangled__BIOS_lib.obj (.text:ti_sysbios_family_arm_cc26xx_Timer_getCount64__E)
                  0000c010    00000018     appBLE_UartLog_pem3.oem3 (.text:ti_sysbios_rom_cortexm_cc26xx_CC26xx_checkRevision__E)
                  0000c028    00000016     ICall.obj (.text:ICall_leaveCSImpl)
                  0000c03e    00000016     ICall.obj (.text:ICall_primStopTimer)
                  0000c054    00000016     main.obj (.text:exceptionHandler)
                  0000c06a    00000016     appBLE_UartLog_pem3.oem3 (.text:ti_sysbios_BIOS_exitFunc__I)
                  0000c080    00000014     devinfoservice.obj (.text:DevInfo_AddService)
                  0000c094    00000014     ICallCC2650.obj (.text:ICallPlatform_pwrIsStableXOSCHF)
                  0000c0a8    00000014     drivers_cc26xxware.aem3 : PINCC26XX.oem3 (.text:PINCC26XX_getInputValue)
                  0000c0bc    00000014                             : SPICC26XXDMA.oem3 (.text:SPICC26XXDMA_init)
                  0000c0d0    00000014                             : SPI.oem3 (.text:SPI_Params_init)
                  0000c0e4    00000014     driverlib.lib : chipinfo.obj (.text:ThisCodeIsBuiltForCC26xxHwRev22AndLater_HaltIfViolated)
                  0000c0f8    00000014     rtsv7M3_T_le_eabi.lib : _lock.obj (.text)
                  0000c10c    00000014                           : strlen.obj (.text)
                  0000c120    00000014     ICallBleAPI.obj (.text:setICallCmdEvtHdr)
                  0000c134    00000014     appBLE_UartLog_pem3.oem3 (.text:ti_sysbios_knl_Clock_doTick__I)
                  0000c148    00000008     (.tramp.ti_sysbios_knl_Clock_logTick__E.1)
                  0000c150    00000012     appBLE_UartLog_pem3.oem3 (.text:xdc_runtime_Startup_exec__I)
                  0000c162    00000002     --HOLE-- [fill = 0]
                  0000c164    00000008     (.tramp.xdc_runtime_Startup_startMods__I.1)
                  0000c16c    00000010     ICallBleAPI.obj (.text:GAP_EndDiscoverable)
                  0000c17c    00000010     ICallBleAPI.obj (.text:GAP_UpdateLinkParamReq)
                  0000c18c    00000010     gattservapp_util.obj (.text:GATTServApp_ReadCharCfg)
                  0000c19c    00000010     ICallCC2650.obj (.text:ICallPlatform_pwrGetXOSCStartupTime)
                  0000c1ac    00000010     ICall.obj (.text:ICall_primGetTickPeriod)
                  0000c1bc    00000010     ICall.obj (.text:ICall_taskEntry)
                  0000c1cc    00000010     drivers_cc26xxware.aem3 : UARTCC26XX.oem3 (.text:UARTCC26XX_init)
                  0000c1dc    00000010     util.obj (.text:Util_isActive)
                  0000c1ec    00000010     drivers_cc26xxware.aem3 : UARTCC26XX.oem3 (.text:uartPostNotify)
                  0000c1fc    00000010     appBLE_UartLog_pem3.oem3 (.text:xdc_runtime_LoggerCallback_Object__get__S)
                  0000c20c    00000010     sysbios.aem3 : mangled__BIOS_lib.obj (.text:xdc_runtime_SysCallback_putch__E)
                  0000c21c    00000010                  : mangled__BIOS_lib.obj (.text:xdc_runtime_SysCallback_ready__E)
                  0000c22c    0000000e     ICallCC2650.obj (.text:ICallPlatform_pwrGetTransitionState)
                  0000c23a    0000000e     ICall.obj (.text:ICall_primDisableMInt)
                  0000c248    0000000e     ICall.obj (.text:ICall_primEnableMInt)
                  0000c256    00000002     --HOLE-- [fill = 0]
                  0000c258    00000008     (.tramp.ti_sysbios_family_arm_m3_Hwi_enableFxn__E.1)
                  0000c260    00000008     (.tramp.ti_sysbios_knl_Task_enable__E.1)
                  0000c268    0000000e     ICall.obj (.text:ICall_primFreeMsg)
                  0000c276    0000000e     ICall.obj (.text:ICall_primGetTicks)
                  0000c284    0000000e     driverlib.lib : vims.obj (.text:NOROM_VIMSModeGet)
                  0000c292    0000000e     rtsv7M3_T_le_eabi.lib : copy_decompress_none.obj (.text:decompress:none)
                  0000c2a0    0000000e     ICallBleAPI.obj (.text:matchGSARegisterServiceCS)
                  0000c2ae    0000000e     ICallBleAPI.obj (.text:matchGapLinkEstCS)
                  0000c2bc    0000000e     ICallBleAPI.obj (.text:matchGapPasscodeCS)
                  0000c2ca    0000000e     ICallBleAPI.obj (.text:matchGattSendRspCS)
                  0000c2d8    0000000e     ICallBleAPI.obj (.text:matchLinkDBNumConnsCS)
                  0000c2e6    0000000e     ICallBleAPI.obj (.text:setDispatchCmdEvtHdr)
                  0000c2f4    0000000c     ICallBleAPI.obj (.text:GAP_MakeDiscoverable)
                  0000c300    0000000c     ICallBleAPI.obj (.text:GAP_TerminateAuth)
                  0000c30c    0000000c     ICallBleAPI.obj (.text:GATT_Indication)
                  0000c318    0000000c     ICall.obj (.text:ICall_clockFunc)
                  0000c324    0000000c     ICall.obj (.text:ICall_primDisableInt)
                  0000c330    00000008     (.tramp.ti_sysbios_hal_Hwi_disableInterrupt__E.1)
                  0000c338    0000000c     ICall.obj (.text:ICall_primEnableInt)
                  0000c344    00000008     (.tramp.ti_sysbios_hal_Hwi_enableInterrupt__E.1)
                  0000c34c    0000000c     ICall.obj (.text:ICall_primFree)
                  0000c358    0000000c     ICall.obj (.text:ICall_primSignal)
                  0000c364    0000000c     driverlib.lib : cpu.obj (.text:NOROM_CPUcpsid)
                  0000c370    0000000c                   : cpu.obj (.text:NOROM_CPUcpsie)
                  0000c37c    0000000c     drivers_cc26xxware.aem3 : PINCC26XX.oem3 (.text:PIN_registerIntCb)
                  0000c388    0000000c     uart_logs.obj (.text:UartLog_doInit)
                  0000c394    0000000c     ICallBleAPI.obj (.text:matchProfileSetParamCS)
                  0000c3a0    0000000c     drivers_cc26xxware.aem3 : SPICC26XXDMA.oem3 (.text:spiPostNotify)
                  0000c3ac    0000000c     sysbios.aem3 : mangled__BIOS_lib.obj (.text:ti_sysbios_BIOS_getThreadType__E)
                  0000c3b8    0000000c                  : mangled__BIOS_lib.obj (.text:ti_sysbios_family_arm_cc26xx_Power_getDependencyCount__E)
                  0000c3c4    0000000c                  : mangled__BIOS_lib.obj (.text:ti_sysbios_family_arm_cc26xx_Power_getTransitionState__E)
                  0000c3d0    0000000c                  : mangled__BIOS_lib.obj (.text:ti_sysbios_hal_Hwi_Params__init__S)
                  0000c3dc    00000008     (.tramp.xdc_runtime_Core_assignParams__I.1)
                  0000c3e4    0000000c     appBLE_UartLog_pem3.oem3 (.text:xdc_runtime_Startup_reset__I)
                  0000c3f0    0000000a     ICallCC2650.obj (.text:ICallPlatform_pwrSwitchXOSCHF)
                  0000c3fa    0000000a     ICall.obj (.text:ICall_primE2S)
                  0000c404    0000000a     drivers_cc26xxware.aem3 : SPI.oem3 (.text:SPI_transfer)
                  0000c40e    0000000a                             : UART.oem3 (.text:UART_write)
                  0000c418    0000000a                             : UDMACC26XX.oem3 (.text:UDMACC26XX_hwiIntFxn)
                  0000c422    0000000a     sysbios.aem3 : mangled__BIOS_lib.obj (.text:xdc_runtime_LoggerCallback_disable__E)
                  0000c42c    0000000a                  : mangled__BIOS_lib.obj (.text:xdc_runtime_LoggerCallback_enable__E)
                  0000c436    0000000a     appBLE_UartLog_pem3.oem3 (.text:xdc_runtime_Text_visitRope__I)
                  0000c440    00000008     ICallBleAPI.obj (.text:GATT_RegisterForMsgs)
                  0000c448    00000008     ICallBleAPI.obj (.text:GGS_AddService)
                  0000c450    00000008     drivers_cc26xxware.aem3 : SPICC26XXDMA.oem3 (.text:SPICC26XXDMA_transferCallback)
                  0000c458    00000008     ICallBleAPI.obj (.text:gattAddService)
                  0000c460    00000008     ICallBleAPI.obj (.text:matchHciExtConnEventNoticeCS)
                  0000c468    00000008     drivers_cc26xxware.aem3 : UARTCC26XX.oem3 (.text:readSemCallback)
                  0000c470    00000008                             : UARTCC26XX.oem3 (.text:writeSemCallback)
                  0000c478    00000006     ICallBleAPI.obj (.text:GATTServApp_AddService)
                  0000c47e    00000006     ICall.obj (.text:ICall_mallocImpl)
                  0000c484    00000006     drivers_cc26xxware.aem3 : UARTCC26XX.oem3 (.text:UARTCC26XX_readPolling)
                  0000c48a    00000006                             : UARTCC26XX.oem3 (.text:UARTCC26XX_writePolling)
                  0000c490    00000006     rtsv7M3_T_le_eabi.lib : copy_decompress_rle.obj (.text:decompress:rle24)
                  0000c496    00000006     ICallBleAPI.obj (.text:matchBondMgrSetParamCS)
                  0000c49c    00000006     ICallBleAPI.obj (.text:matchGGSSetParamCS)
                  0000c4a2    00000006     ICallBleAPI.obj (.text:matchGapDeviceInitCS)
                  0000c4a8    00000006     ICallBleAPI.obj (.text:matchGapEndDiscoverableCS)
                  0000c4ae    00000006     ICallBleAPI.obj (.text:matchGapGetParamCS)
                  0000c4b4    00000006     ICallBleAPI.obj (.text:matchGapMakeDiscoverableCS)
                  0000c4ba    00000006     ICallBleAPI.obj (.text:matchGapSetParamCS)
                  0000c4c0    00000006     ICallBleAPI.obj (.text:matchGapTerminateAuthCS)
                  0000c4c6    00000006     ICallBleAPI.obj (.text:matchGapTerminateLinkReqCS)
                  0000c4cc    00000006     ICallBleAPI.obj (.text:matchGapUpdateAdvDataCS)
                  0000c4d2    00000006     ICallBleAPI.obj (.text:matchGapUpdateLinkParamReqCS)
                  0000c4d8    00000006     ICallBleAPI.obj (.text:matchUtilNvReadCS)
                  0000c4de    00000006     ICallBleAPI.obj (.text:matchUtilNvWriteCS)
                  0000c4e4    00000004     util.obj (.text:Util_stopClock)
                  0000c4e8    00000004     appBLE_UartLog_pem3.oem3 (.text:ti_sysbios_family_arm_cc26xx_Power_NOP)
                  0000c4ec    00000004     sysbios.aem3 : mangled__BIOS_lib.obj (.text:ti_sysbios_knl_Clock_isActive__E)
                  0000c4f0    00000004                  : mangled__BIOS_lib.obj (.text:xdc_runtime_LoggerCallback_defaultCreate)
                  0000c4f4    00000004                  : mangled__BIOS_lib.obj (.text:xdc_runtime_SysCallback_defaultReady)
                  0000c4f8    00000008     (.tramp.ti_sysbios_knl_Queue_enqueue__E.1)
                  0000c500    00000008     (.tramp.ti_sysbios_knl_Clock_destruct.1)
                  0000c508    00000008     (.tramp.ti_sysbios_knl_Semaphore_destruct.1)
                  0000c510    00000008     (.tramp.ti_sysbios_family_arm_m3_Hwi_destruct.1)
                  0000c518    00000008     (.tramp.ti_sysbios_knl_Semaphore_create.1)
                  0000c520    00000008     (.tramp.ti_sysbios_knl_Task_create.1)
                  0000c528    00000008     (.tramp.ti_sysbios_knl_Task_Params__init__S.1)
                  0000c530    00000008     (.tramp.ti_sysbios_knl_Queue_dequeue__E.1)
                  0000c538    00000008     (.tramp.ti_sysbios_knl_Clock_create.1)
                  0000c540    00000008     (.tramp.ti_sysbios_knl_Clock_scheduleNextTick__E.1)
                  0000c548    00000008     (.tramp.ti_sysbios_knl_Clock_walkQueueDynamic__E.1)
                  0000c550    00000008     (.tramp.ti_sysbios_BIOS_getCpuFreq__E.1)
                  0000c558    00000008     (.tramp.ti_sysbios_knl_Semaphore_post__E.1)
                  0000c560    00000008     (.tramp.ti_sysbios_knl_Clock_getTicks__E.1)
                  0000c568    00000008     (.tramp.ti_sysbios_knl_Task_self__E.1)
                  0000c570    00000008     (.tramp.ti_sysbios_knl_Clock_start__E.1)
                  0000c578    00000008     (.tramp.ti_sysbios_knl_Clock_setTimeout__E.1)
                  0000c580    00000008     (.tramp.ti_sysbios_knl_Clock_TimerProxy_getCurrentTick__E.1)
                  0000c588    00000008     (.tramp.ti_sysbios_knl_Semaphore_pend__E.1)
                  0000c590    00000008     (.tramp.ti_sysbios_knl_Clock_stop__E.1)
                  0000c598    00000008     (.tramp.ti_sysbios_family_arm_m3_Hwi_restoreFxn__E.1)
                  0000c5a0    00000008     (.tramp.ti_sysbios_family_arm_m3_Hwi_disableFxn__E.1)
                  0000c5a8    00000008     (.tramp.xdc_runtime_Text_ropeText__E.1)
                  0000c5b0    00000008     (.tramp.ti_sysbios_family_arm_m3_Hwi_construct.1)
                  0000c5b8    00000008     (.tramp.ti_sysbios_family_arm_m3_Hwi_Params__init__S.1)
                  0000c5c0    00000008     (.tramp.ti_sysbios_knl_Semaphore_construct.1)
                  0000c5c8    00000008     (.tramp.ti_sysbios_knl_Semaphore_Params__init__S.1)
                  0000c5d0    00000008     (.tramp.ti_sysbios_knl_Task_restore__E.1)
                  0000c5d8    00000008     (.tramp.ti_sysbios_knl_Swi_restore__E.1)
                  0000c5e0    00000008     (.tramp.ti_sysbios_knl_Swi_disable__E.1)
                  0000c5e8    00000008     (.tramp.ti_sysbios_knl_Queue_next__E.1)
                  0000c5f0    00000008     (.tramp.ti_sysbios_knl_Queue_head__E.1)
                  0000c5f8    00000008     (.tramp.ti_sysbios_knl_Queue_empty__E.1)
                  0000c600    00000008     (.tramp.ti_sysbios_knl_Task_disable__E.1)
                  0000c608    00000008     (.tramp.ti_sysbios_knl_Swi_post__E.1)
                  0000c610    00000008     (.tramp.ti_sysbios_knl_Clock_construct.1)
                  0000c618    00000008     (.tramp.ti_sysbios_knl_Clock_Params__init__S.1)
                  0000c620    00000008     (.tramp.ti_sysbios_knl_Task_exit__E.1)
                  0000c628    00000008     (.tramp.ti_sysbios_knl_Queue_construct.1)

.const.1   0    0000c630    000019cf     
                  0000c630    00001742     appBLE_UartLog_pem3.oem3 (.const:xdc_runtime_Text_charTab__A)
                  0000dd72    00000002     gatt_uuid.obj (.const:.string:characterUUID)
                  0000dd74    000000a4     ICall.obj (.const:ICall_primSvcFuncs)
                  0000de18    00000054     drivers_cc26xxware.aem3 : SPICC26XXDMA.oem3 (.const)
                  0000de6c    0000004c     appBLE_UartLog_pem3.oem3 (.const:ti_sysbios_family_arm_cc26xx_Power_db)
                  0000deb8    00000048     appBLE_UartLog_pem3.oem3 (.const:.string)
                  0000df00    00000040     drivers_cc26xxware.aem3 : UARTCC26XX.oem3 (.const)
                  0000df40    00000034     appBLE_UartLog_pem3.oem3 (.const:xdc_runtime_LoggerCallback_Module__FXNS__C)
                  0000df74    0000002c     appBLE_UartLog_pem3.oem3 (.const:xdc_runtime_Startup_sfxnTab__A)
                  0000dfa0    00000028     ProjectZero.obj (.const:.string:$P$T0$1)
                  0000dfc8    00000028     drivers_cc26xxware.aem3 : UARTCC26XX.oem3 (.const:UARTCC26XX_fxnTable)
                  0000dff0    0000000c     Button_Service.obj (.const:Button_ServiceCBs)
                  0000dffc    00000002     gatt_uuid.obj (.const:.string:clientCharCfgUUID)
                  0000dffe    00000001     ICallCC2650.obj (.const:events$1)

.const.2   0    0001f000    0000032c     
                  0001f000    00000028     CC2650_LAUNCHXL.obj (.const:spiCC26XXDMAHWAttrs)
                  0001f028    00000027     bleUserConfig.obj (.const:txPowerTable)
                  0001f04f    00000001     --HOLE-- [fill = 0]
                  0001f050    00000024     CC2650_LAUNCHXL.obj (.const:SPI_config)
                  0001f074    00000024     drivers_cc26xxware.aem3 : UART.oem3 (.const:UART_defaultParams)
                  0001f098    00000020     CC2650_LAUNCHXL.obj (.const:BoardGpioInitTable)
                  0001f0b8    00000020     drivers_cc26xxware.aem3 : SPI.oem3 (.const)
                  0001f0d8    00000020     appBLE_UartLog_pem3.oem3 (.const:xdc_runtime_LoggerCallback_Object__DESC__C)
                  0001f0f8    0000001c     appBLE_UartLog_pem3.oem3 (.const:xdc_runtime_LoggerCallback_Object__PARAMS__C)
                  0001f114    00000018     CC2650_LAUNCHXL.obj (.const:UART_config)
                  0001f12c    00000016     appBLE_UartLog_pem3.oem3 (.const:xdc_runtime_Startup_sfxnRts__A)
                  0001f142    00000011     util.obj (.const:.string:$P$T0$2)
                  0001f153    00000011     ProjectZero.obj (.const:.string:$P$T1$5)
                  0001f164    00000011     sysbios.aem3 : mangled__BIOS_lib.obj (.const:.string:digtohex$62)
                  0001f175    00000010     Button_Service.obj (.const:.string:ButtonServiceUUID)
                  0001f185    00000010     Data_Service.obj (.const:.string:DataServiceUUID)
                  0001f195    00000010     LED_Service.obj (.const:.string:LedServiceUUID)
                  0001f1a5    00000010     Button_Service.obj (.const:.string:bs_BUTTON0UUID)
                  0001f1b5    00000010     Button_Service.obj (.const:.string:bs_BUTTON1UUID)
                  0001f1c5    00000010     Data_Service.obj (.const:.string:ds_StreamUUID)
                  0001f1d5    00000010     Data_Service.obj (.const:.string:ds_StringUUID)
                  0001f1e5    00000010     LED_Service.obj (.const:.string:ls_LED0UUID)
                  0001f1f5    00000010     LED_Service.obj (.const:.string:ls_LED1UUID)
                  0001f205    00000002     devinfoservice.obj (.const:.string:devInfo11073CertUUID)
                  0001f207    00000001     --HOLE-- [fill = 0]
                  0001f208    00000010     CC2650_LAUNCHXL.obj (.const:UDMACC26XX_config)
                  0001f218    00000010     CC2650_LAUNCHXL.obj (.const:uartCC26XXHWAttrs)
                  0001f228    00000010     appBLE_UartLog_pem3.oem3 (.const:xdc_runtime_Text_nodeTab__A)
                  0001f238    0000000c     Data_Service.obj (.const:Data_ServiceCBs)
                  0001f244    0000000c     ICall.obj (.const:ICall_taskEntryFuncs)
                  0001f250    0000000c     LED_Service.obj (.const:LED_ServiceCBs)
                  0001f25c    0000000c     devinfoservice.obj (.const:devInfoCBs)
                  0001f268    0000000c     appBLE_UartLog_pem3.oem3 (.const:xdc_runtime_Startup_firstFxns__A)
                  0001f274    00000008     Button_Service.obj (.const:ButtonServiceDecl)
                  0001f27c    00000008     Data_Service.obj (.const:DataServiceDecl)
                  0001f284    00000008     LED_Service.obj (.const:LedServiceDecl)
                  0001f28c    00000008     devinfoservice.obj (.const:devInfoService)
                  0001f294    00000008     appBLE_UartLog_pem3.oem3 (.const:ti_sysbios_knl_Idle_funcList__A)
                  0001f29c    00000008     CC2650_LAUNCHXL.obj (.const:udmaHWAttrs)
                  0001f2a4    00000006     bleUserConfig.obj (.const:txPwrTbl)
                  0001f2aa    00000002     devinfoservice.obj (.const:.string:devInfoFirmwareRevUUID)
                  0001f2ac    00000004     ICall.obj (.const:ICall_threadPriorities)
                  0001f2b0    00000004     ICall.obj (.const:ICall_threadStackSizes)
                  0001f2b4    00000004     ICall.obj (.const:icall_threadEntries)
                  0001f2b8    00000004     appBLE_UartLog_pem3.oem3 (.const:ti_sysbios_family_arm_cc26xx_Power_Module_State_clockObj__O)
                  0001f2bc    00000004     appBLE_UartLog_pem3.oem3 (.const:ti_sysbios_family_arm_cc26xx_Power_Module_State_lfClockObj__O)
                  0001f2c0    00000004     appBLE_UartLog_pem3.oem3 (.const:ti_sysbios_family_arm_cc26xx_Power_Module_State_notifyQ__O)
                  0001f2c4    00000004     appBLE_UartLog_pem3.oem3 (.const:ti_sysbios_family_arm_cc26xx_Power_notifyTrapFunc__C)
                  0001f2c8    00000004     appBLE_UartLog_pem3.oem3 (.const:ti_sysbios_family_arm_cc26xx_Power_totalTicksSTANDBY__C)
                  0001f2cc    00000004     appBLE_UartLog_pem3.oem3 (.const:ti_sysbios_family_arm_cc26xx_Power_wakeDelaySTANDBY__C)
                  0001f2d0    00000004     appBLE_UartLog_pem3.oem3 (.const:ti_sysbios_family_arm_m3_Hwi_disablePriority__C)
                  0001f2d4    00000004     appBLE_UartLog_pem3.oem3 (.const:ti_sysbios_knl_Clock_tickPeriod__C)
                  0001f2d8    00000004     appBLE_UartLog_pem3.oem3 (.const:xdc_runtime_ILogger_Interface__BASE__C)
                  0001f2dc    00000004     appBLE_UartLog_pem3.oem3 (.const:xdc_runtime_Log_L_error__C)
                  0001f2e0    00000004     appBLE_UartLog_pem3.oem3 (.const:xdc_runtime_Log_L_info__C)
                  0001f2e4    00000004     appBLE_UartLog_pem3.oem3 (.const:xdc_runtime_Log_L_warning__C)
                  0001f2e8    00000004     appBLE_UartLog_pem3.oem3 (.const:xdc_runtime_LoggerCallback_Object__count__C)
                  0001f2ec    00000004     appBLE_UartLog_pem3.oem3 (.const:xdc_runtime_LoggerCallback_createInstFxn__C)
                  0001f2f0    00000004     appBLE_UartLog_pem3.oem3 (.const:xdc_runtime_LoggerCallback_outputFxn__C)
                  0001f2f4    00000004     appBLE_UartLog_pem3.oem3 (.const:xdc_runtime_Main_Module__loggerFxn4__C)
                  0001f2f8    00000004     appBLE_UartLog_pem3.oem3 (.const:xdc_runtime_Main_Module__loggerFxn8__C)
                  0001f2fc    00000004     appBLE_UartLog_pem3.oem3 (.const:xdc_runtime_Main_Module__loggerObj__C)
                  0001f300    00000004     appBLE_UartLog_pem3.oem3 (.const:xdc_runtime_SysCallback_putchFxn__C)
                  0001f304    00000004     appBLE_UartLog_pem3.oem3 (.const:xdc_runtime_SysCallback_readyFxn__C)
                  0001f308    00000004     appBLE_UartLog_pem3.oem3 (.const:xdc_runtime_System_extendFxn__C)
                  0001f30c    00000004     appBLE_UartLog_pem3.oem3 (.const:xdc_runtime_Text_nodeTab__C)
                  0001f310    00000004     appBLE_UartLog_pem3.oem3 (.const:xdc_runtime_Text_visitRopeFxn__C)
                  0001f314    00000002     devinfoservice.obj (.const:.string:devInfoHardwareRevUUID)
                  0001f316    00000002     devinfoservice.obj (.const:.string:devInfoMfrNameUUID)
                  0001f318    00000002     devinfoservice.obj (.const:.string:devInfoModelNumberUUID)
                  0001f31a    00000002     devinfoservice.obj (.const:.string:devInfoPnpIdUUID)
                  0001f31c    00000002     devinfoservice.obj (.const:.string:devInfoSerialNumberUUID)
                  0001f31e    00000002     devinfoservice.obj (.const:.string:devInfoServUUID)
                  0001f320    00000002     devinfoservice.obj (.const:.string:devInfoSoftwareRevUUID)
                  0001f322    00000002     devinfoservice.obj (.const:.string:devInfoSystemIdUUID)
                  0001f324    00000002     gatt_uuid.obj (.const:.string:primaryServiceUUID)
                  0001f326    00000002     appBLE_UartLog_pem3.oem3 (.const:xdc_runtime_Main_Module__loggerDefined__C)
                  0001f328    00000002     appBLE_UartLog_pem3.oem3 (.const:xdc_runtime_Text_registryModsLastId__C)
                  0001f32a    00000002     appBLE_UartLog_pem3.oem3 (.const:xdc_runtime_Text_unnamedModsLastId__C)

.cinit     0    0001f330    00000814     
                  0001f330    00000618     (.cinit..data.load) [load image, compression = rle]
                  0001f948    0000002d     (.cinit..data:ti_sysbios_family_arm_m3_Hwi_Module__state__V.load) [load image, compression = rle]
                  0001f975    00000003     --HOLE-- [fill = 0]
                  0001f978    0000002c     (.cinit..data:ti_sysbios_knl_Task_Module__state__V.load) [load image, compression = rle]
                  0001f9a4    00000004     --HOLE-- [fill = 0]
                  0001f9a8    00000021     (.cinit..data:ti_sysbios_knl_Clock_Module__state__V.load) [load image, compression = rle]
                  0001f9c9    00000007     --HOLE-- [fill = 0]
                  0001f9d0    0000001f     (.cinit..data:ti_sysbios_BIOS_Module__state__V.load) [load image, compression = rle]
                  0001f9ef    00000001     --HOLE-- [fill = 0]
                  0001f9f0    00000011     (.cinit..data:ti_sysbios_knl_Swi_Module__state__V.load) [load image, compression = rle]
                  0001fa01    00000007     --HOLE-- [fill = 0]
                  0001fa08    0000000d     (.cinit..data:ti_sysbios_family_arm_cc26xx_Timer_Module__state__V.load) [load image, compression = rle]
                  0001fa15    00000003     --HOLE-- [fill = 0]
                  0001fa18    0000000b     (.cinit..bss.load) [load image, compression = rle]
                  0001fa23    00000005     --HOLE-- [fill = 0]
                  0001fa28    0000000a     (.cinit..data:xdc_runtime_Memory_Module__state__V.load) [load image, compression = rle]
                  0001fa32    00000006     --HOLE-- [fill = 0]
                  0001fa38    00000009     (.cinit..TI.bound:dmaRxControlTableEntry0.load) [load image, compression = rle]
                  0001fa41    00000007     --HOLE-- [fill = 0]
                  0001fa48    00000009     (.cinit..TI.bound:dmaRxControlTableEntry1.load) [load image, compression = rle]
                  0001fa51    00000007     --HOLE-- [fill = 0]
                  0001fa58    00000009     (.cinit..TI.bound:dmaTxControlTableEntry0.load) [load image, compression = rle]
                  0001fa61    00000007     --HOLE-- [fill = 0]
                  0001fa68    00000009     (.cinit..TI.bound:dmaTxControlTableEntry1.load) [load image, compression = rle]
                  0001fa71    00000007     --HOLE-- [fill = 0]
                  0001fa78    00000009     (.cinit..data:ti_sysbios_family_arm_cc26xx_TimestampProvider_Module__state__V.load) [load image, compression = rle]
                  0001fa81    00000007     --HOLE-- [fill = 0]
                  0001fa88    00000009     (.cinit..data:xdc_runtime_Startup_Module__state__V.load) [load image, compression = rle]
                  0001fa91    00000007     --HOLE-- [fill = 0]
                  0001fa98    00000009     (.cinit..data:xdc_runtime_System_Module__state__V.load) [load image, compression = rle]
                  0001faa1    00000007     --HOLE-- [fill = 0]
                  0001faa8    00000009     (.cinit..vecs.load) [load image, compression = rle]
                  0001fab1    00000003     --HOLE-- [fill = 0]
                  0001fab4    00000008     (__TI_handler_table)
                  0001fabc    00000088     (__TI_cinit_table)

.init_array 
*          0    00000000    00000000     UNINITIALIZED

.ccfg      0    0001ffa8    00000058     
                  0001ffa8    00000058     ccfg_appBLE.obj (.ccfg:retain)

.vecs      0    20000000    000000c8     UNINITIALIZED
                  20000000    000000c8     appBLE_UartLog_pem3.oem3 (.vecs)

.data:ti_sysbios_knl_Task_Module__state__V 
*          0    20000100    00000044     UNINITIALIZED
                  20000100    00000044     appBLE_UartLog_pem3.oem3 (.data:ti_sysbios_knl_Task_Module__state__V)

.data:ti_sysbios_family_arm_m3_Hwi_Module__state__V 
*          0    20000144    00000034     UNINITIALIZED
                  20000144    00000034     appBLE_UartLog_pem3.oem3 (.data:ti_sysbios_family_arm_m3_Hwi_Module__state__V)

.data:ti_sysbios_knl_Clock_Module__state__V 
*          0    20000178    0000002c     UNINITIALIZED
                  20000178    0000002c     appBLE_UartLog_pem3.oem3 (.data:ti_sysbios_knl_Clock_Module__state__V)

.data:ti_sysbios_BIOS_Module__state__V 
*          0    200001a4    00000024     UNINITIALIZED
                  200001a4    00000024     appBLE_UartLog_pem3.oem3 (.data:ti_sysbios_BIOS_Module__state__V)

.data:ti_sysbios_knl_Swi_Module__state__V 
*          0    200001c8    0000001c     UNINITIALIZED
                  200001c8    0000001c     appBLE_UartLog_pem3.oem3 (.data:ti_sysbios_knl_Swi_Module__state__V)

.data:ti_sysbios_family_arm_cc26xx_Timer_Module__state__V 
*          0    200001e4    00000008     UNINITIALIZED
                  200001e4    00000008     appBLE_UartLog_pem3.oem3 (.data:ti_sysbios_family_arm_cc26xx_Timer_Module__state__V)

.data:ti_sysbios_family_arm_cc26xx_TimestampProvider_Module__state__V 
*          0    200001ec    00000004     UNINITIALIZED
                  200001ec    00000004     appBLE_UartLog_pem3.oem3 (.data:ti_sysbios_family_arm_cc26xx_TimestampProvider_Module__state__V)

.data:xdc_runtime_Startup_Module__state__V 
*          0    200001f0    00000008     UNINITIALIZED
                  200001f0    00000008     appBLE_UartLog_pem3.oem3 (.data:xdc_runtime_Startup_Module__state__V)

.data:xdc_runtime_System_Module__state__V 
*          0    200001f8    00000008     UNINITIALIZED
                  200001f8    00000008     appBLE_UartLog_pem3.oem3 (.data:xdc_runtime_System_Module__state__V)

.data:xdc_runtime_Memory_Module__state__V 
*          0    20000200    00000004     UNINITIALIZED
                  20000200    00000004     appBLE_UartLog_pem3.oem3 (.data:xdc_runtime_Memory_Module__state__V)

.TI.bound:dmaRxControlTableEntry0 
*          0    20000430    00000010     UNINITIALIZED
                  20000430    00000010     drivers_cc26xxware.aem3 : SPICC26XXDMA.oem3 (.TI.bound:dmaRxControlTableEntry0)

.TI.bound:dmaTxControlTableEntry0 
*          0    20000440    00000010     UNINITIALIZED
                  20000440    00000010     drivers_cc26xxware.aem3 : SPICC26XXDMA.oem3 (.TI.bound:dmaTxControlTableEntry0)

.TI.bound:dmaRxControlTableEntry1 
*          0    20000500    00000010     UNINITIALIZED
                  20000500    00000010     drivers_cc26xxware.aem3 : SPICC26XXDMA.oem3 (.TI.bound:dmaRxControlTableEntry1)

.TI.bound:dmaTxControlTableEntry1 
*          0    20000510    00000010     UNINITIALIZED
                  20000510    00000010     drivers_cc26xxware.aem3 : SPICC26XXDMA.oem3 (.TI.bound:dmaTxControlTableEntry1)

.bss       0    20000520    0000273a     UNINITIALIZED
                  20000520    00000bb8     ICall.obj (.bss:heapmgrHeapStore)
                  200010d8    00000680     (.common:ti_sysbios_heaps_HeapMem_Instance_State_0_buf__A)
                  20001758    00000500     (.common:uartLog_evBuf)
                  20001c58    00000320     (.common:przTaskStack)
                  20001f78    00000208     (.common:gapRoleTaskStack)
                  20002180    00000200     appBLE_UartLog_pem3.oem3 (.bss:taskStackSection)
                  20002380    00000150     (.common:spiCC26XXDMAObjects)
                  200024d0    00000100     (.common:iBuff)
                  200025d0    000000d0     (.common:uartCC26XXObjects)
                  200026a0    000000c8     (.common:ti_sysbios_family_arm_m3_Hwi_dispatchTable)
                  20002768    000000ac     (.common:uartLog_outBuf)
                  20002814    0000007c     drivers_cc26xxware.aem3 : PINCC26XX.oem3 (.bss:PIN_HandleTable)
                  20002890    00000064     (.common:buff)
                  200028f4    00000050     (.common:gapRoleTask)
                  20002944    00000050     (.common:przTask)
                  20002994    00000048     ICall.obj (.bss:ICall_entities)
                  200029dc    00000024     ICall.obj (.bss:ICall_tasks)
                  20002a00    00000024     ProjectZero.obj (.bss:button0DebounceClock)
                  20002a24    00000024     ProjectZero.obj (.bss:button1DebounceClock)
                  20002a48    00000024     peripheral.obj (.bss:startAdvClock)
                  20002a6c    00000024     peripheral.obj (.bss:startUpdateClock)
                  20002a90    00000024     peripheral.obj (.bss:updateTimeoutClock)
                  20002ab4    00000020     (.common:PinGpioConfigTable)
                  20002ad4    00000020     (.common:udmaObjects)
                  20002af4    0000001c     (.common:PinHwi)
                  20002b10    0000001c     (.common:PinSem)
                  20002b2c    00000018     (.common:buff_log)
                  20002b44    00000014     ProjectZero.obj (.bss)
                  20002b58    00000014     peripheral.obj (.bss)
                  20002b6c    00000014     (.common:buf)
                  20002b80    00000014     (.common:oscHfGlobals)
                  20002b94    00000014     (.common:transaction)
                  20002ba8    00000010     peripheral.obj (.bss:gapRole_IRK)
                  20002bb8    00000010     peripheral.obj (.bss:gapRole_SRK)
                  20002bc8    00000010     ProjectZero.obj (.bss:pretty_data_holder$2)
                  20002bd8    00000010     util.obj (.bss:str$1)
                  20002be8    0000000c     ICall.obj (.bss)
                  20002bf4    0000000c     ProjectZero.obj (.bss:applicationMsgQ)
                  20002c00    0000000c     ProjectZero.obj (.bss:buttonPinState)
                  20002c0c    0000000c     ProjectZero.obj (.bss:ledPinState)
                  20002c18    0000000c     (.common:pinState)
                  20002c24    00000008     Button_Service.obj (.bss)
                  20002c2c    00000008     peripheral.obj (.bss:gapRole_bdAddr)
                  20002c34    00000008     (.common:powerQualGlobals)
                  20002c3c    00000004     Data_Service.obj (.bss)
                  20002c40    00000004     (.common:PIN_NumPins)
                  20002c44    00000004     (.common:hPin)
                  20002c48    00000004     (.common:handle)
                  20002c4c    00000004     (.common:mySwi)
                  20002c50    00000004     (.common:pPinGpio)
                  20002c54    00000002     ProjectZero.obj (.bss:buttonMsg$4)
                  20002c56    00000001     (.common:driverlib_release_0_43243)
                  20002c57    00000001     (.common:linkDBNumConns)
                  20002c58    00000001     (.common:spiPowerConstraint)
                  20002c59    00000001     (.common:uartPowerConstraint)

.data      0    20002c60    00000894     UNINITIALIZED
                  20002c60    00000130     devinfoservice.obj (.data:devInfoAttrTbl)
                  20002d90    00000070     Button_Service.obj (.data:Button_ServiceAttrTbl)
                  20002e00    00000070     appBLE_UartLog_pem3.oem3 (.data:ti_sysbios_family_arm_cc26xx_Power_Module__state__V)
                  20002e70    00000064     Data_Service.obj (.data:ds_StringVal)
                  20002ed4    00000064     ProjectZero.obj (.data:received_string$3)
                  20002f38    00000060     Data_Service.obj (.data:Data_ServiceAttrTbl)
                  20002f98    00000050     LED_Service.obj (.data:LED_ServiceAttrTbl)
                  20002fe8    0000004c     appBLE_UartLog_pem3.oem3 (.data:ti_sysbios_knl_Task_Object__table__V)
                  20003034    00000004     ICall.obj (.data:ICall_initParams)
                  20003038    00000048     appBLE_UartLog_pem3.oem3 (.data:ti_sysbios_family_arm_cc26xx_Timer_Object__table__V)
                  20003080    00000038     appBLE_UartLog_pem3.oem3 (.data:ti_sysbios_gates_GateMutex_Object__table__V)
                  200030b8    00000034     bleUserConfig.obj (.data:rfRegTbl)
                  200030ec    00000030     appBLE_UartLog_pem3.oem3 (.data:ti_sysbios_family_arm_m3_Hwi_Object__table__V)
                  2000311c    00000030     appBLE_UartLog_pem3.oem3 (.data:ti_sysbios_knl_Swi_Module_State_0_readyQ__A)
                  2000314c    00000030     appBLE_UartLog_pem3.oem3 (.data:ti_sysbios_knl_Swi_Object__table__V)
                  2000317c    00000030     appBLE_UartLog_pem3.oem3 (.data:ti_sysbios_knl_Task_Module_State_0_readyQ__A)
                  200031ac    00000028     peripheral.obj (.data)
                  200031d4    00000020     ProjectZero.obj (.data:localNameStr$6)
                  200031f4    0000001f     peripheral.obj (.data:gapRole_AdvertData)
                  20003213    0000001f     peripheral.obj (.data:gapRole_ScanRspData)
                  20003232    00000002     appBLE_UartLog_pem3.oem3 (.data:ti_sysbios_family_arm_m3_Hwi_Module_State_0_excActive__A)
                  20003234    0000001c     sysbios.aem3 : mangled__BIOS_lib.obj (.data:$O1$$)
                  20003250    0000001c     main.obj (.data:user0Cfg)
                  2000326c    00000018     ProjectZero.obj (.data)
                  20003284    00000018     appBLE_UartLog_pem3.oem3 (.data:ti_sysbios_heaps_HeapMem_Object__table__V)
                  2000329c    00000015     ProjectZero.obj (.data:attDeviceName)
                  200032b1    00000015     devinfoservice.obj (.data:devInfoFirmwareRev)
                  200032c6    00000015     devinfoservice.obj (.data:devInfoHardwareRev)
                  200032db    00000015     devinfoservice.obj (.data:devInfoMfrName)
                  200032f0    00000015     devinfoservice.obj (.data:devInfoModelNumber)
                  20003305    00000015     devinfoservice.obj (.data:devInfoSerialNumber)
                  2000331a    00000015     devinfoservice.obj (.data:devInfoSoftwareRev)
                  2000332f    00000014     ProjectZero.obj (.data:buf_tr)
                  20003343    00000014     Data_Service.obj (.data:ds_StreamVal)
                  20003357    00000013     appBLE_UartLog_pem3.oem3 (.data:ti_sysbios_family_arm_cc26xx_Power_refCount)
                  2000336a    00000011     ProjectZero.obj (.data:advertData)
                  2000337b    00000001     Button_Service.obj (.data:bs_BUTTON0Val)
                  2000337c    00000010     ICall.obj (.data)
                  2000338c    00000010     appBLE_UartLog_pem3.oem3 (.data:xdc_runtime_LoggerCallback_Object__table__V)
                  2000339c    0000000e     devinfoservice.obj (.data:defaultDevInfo11073Cert)
                  200033aa    00000001     Button_Service.obj (.data:bs_BUTTON1Val)
                  200033ab    00000001     LED_Service.obj (.data:ls_LED0Val)
                  200033ac    0000000e     devinfoservice.obj (.data)
                  200033ba    00000001     LED_Service.obj (.data:ls_LED1Val)
                  200033bb    00000001     ProjectZero.obj (.data:scanRspData)
                  200033bc    0000000c     rtsv7M3_T_le_eabi.lib : exit.obj (.data:$O1$$)
                  200033c8    0000000c     Button_Service.obj (.data)
                  200033d4    0000000c     Data_Service.obj (.data)
                  200033e0    0000000c     ICallBleAPI.obj (.data)
                  200033ec    0000000c     LED_Service.obj (.data)
                  200033f8    0000000c     ProjectZero.obj (.data:buttonPinTable)
                  20003404    0000000c     ProjectZero.obj (.data:ledPinTable)
                  20003410    0000000c     appBLE_UartLog_pem3.oem3 (.data:ti_sysbios_family_arm_cc26xx_Power_resourceHandlers)
                  2000341c    0000000a     uart_logs.obj (.data)
                  20003426    00000002     --HOLE--
                  20003428    00000008     rtsv7M3_T_le_eabi.lib : _lock.obj (.data:$O1$$)
                  20003430    00000008     ICallCC2650.obj (.data)
                  20003438    00000008     devinfoservice.obj (.data:devInfoSystemId)
                  20003440    00000008     appBLE_UartLog_pem3.oem3 (.data:ti_sysbios_family_arm_m3_Hwi_Module__root__V)
                  20003448    00000008     appBLE_UartLog_pem3.oem3 (.data:ti_sysbios_gates_GateHwi_Module__root__V)
                  20003450    00000008     appBLE_UartLog_pem3.oem3 (.data:ti_sysbios_gates_GateMutex_Module__root__V)
                  20003458    00000008     appBLE_UartLog_pem3.oem3 (.data:ti_sysbios_hal_Hwi_Module__root__V)
                  20003460    00000008     appBLE_UartLog_pem3.oem3 (.data:ti_sysbios_heaps_HeapMem_Module__root__V)
                  20003468    00000008     appBLE_UartLog_pem3.oem3 (.data:ti_sysbios_knl_Clock_Module__root__V)
                  20003470    00000008     appBLE_UartLog_pem3.oem3 (.data:ti_sysbios_knl_Mailbox_Module__root__V)
                  20003478    00000008     appBLE_UartLog_pem3.oem3 (.data:ti_sysbios_knl_Queue_Module__root__V)
                  20003480    00000008     appBLE_UartLog_pem3.oem3 (.data:ti_sysbios_knl_Semaphore_Module__root__V)
                  20003488    00000008     appBLE_UartLog_pem3.oem3 (.data:ti_sysbios_knl_Swi_Module__root__V)
                  20003490    00000008     appBLE_UartLog_pem3.oem3 (.data:ti_sysbios_knl_Task_Module__root__V)
                  20003498    00000008     ProjectZero.obj (.data:user_Button_ServiceCBs)
                  200034a0    00000008     ProjectZero.obj (.data:user_Data_ServiceCBs)
                  200034a8    00000008     ProjectZero.obj (.data:user_LED_ServiceCBs)
                  200034b0    00000008     ProjectZero.obj (.data:user_bondMgrCBs)
                  200034b8    00000008     appBLE_UartLog_pem3.oem3 (.data:xdc_runtime_LoggerCallback_Module__root__V)
                  200034c0    00000008     appBLE_UartLog_pem3.oem3 (.data:xdc_runtime_Registry_Module__state__V)
                  200034c8    00000007     devinfoservice.obj (.data:devInfoPnpId)
                  200034cf    00000006     peripheral.obj (.data:gapRole_AdvDirectAddr)
                  200034d5    00000006     peripheral.obj (.data:gapRole_ConnectedDevAddr)
                  200034db    00000005     appBLE_UartLog_pem3.oem3 (.data:ti_sysbios_family_arm_cc26xx_Power_constraintCounts)
                  200034e0    00000004     rtsv7M3_T_le_eabi.lib : stkdepth_vars.obj (.data)
                  200034e4    00000004     appBLE_UartLog_pem3.oem3 (.data:ti_sysbios_family_arm_m3_Hwi_Module_State_0_excContext__A)
                  200034e8    00000004     appBLE_UartLog_pem3.oem3 (.data:ti_sysbios_family_arm_m3_Hwi_Module_State_0_excStack__A)
                  200034ec    00000004     appBLE_UartLog_pem3.oem3 (.data:ti_sysbios_knl_Task_Module_State_0_idleTask__A)
                  200034f0    00000004     ProjectZero.obj (.data:user_gapRoleCBs)

.stack     0    20003fe4    00000400     UNINITIALIZED
                  20003fe4    00000400     --HOLE--

.bootVecs 
*          0    00000000    00000008     DSECT
                  00000000    00000008     boot.aem3 : boot.oem3 (.bootVecs)

xdc.meta   0    00000000    00000104     COPY SECTION
                  00000000    00000104     appBLE_UartLog_pem3.oem3 (xdc.meta)

MODULE SUMMARY

       Module                     code    ro data   rw data
       ------                     ----    -------   -------
    .\Application\
       ProjectZero.obj            9748    57        1729   
    +--+--------------------------+-------+---------+---------+
       Total:                     9748    57        1729   
                                                           
    .\ICallBLE\
       ICallBleAPI.obj            2586    0         12     
       bleUserConfig.obj          0       45        52     
    +--+--------------------------+-------+---------+---------+
       Total:                     2586    45        64     
                                                           
    .\ICall\
       ICall.obj                  2856    188       3140   
       ICallCC2650.obj            548     1         8      
    +--+--------------------------+-------+---------+---------+
       Total:                     3404    189       3148   
                                                           
    .\Profiles\
       peripheral.obj             3368    0         883    
       Data_Service.obj           3256    68        232    
       Button_Service.obj         2692    68        134    
       LED_Service.obj            2668    68        94     
       devinfoservice.obj         652     40        473    
       gattservapp_util.obj       568     0         0      
       gatt_uuid.obj              0       6         0      
    +--+--------------------------+-------+---------+---------+
       Total:                     13204   250       1816   
                                                           
    .\Startup\
       CC2650_LAUNCHXL.obj        0       172       576    
       main.obj                   78      0         28     
       ccfg_appBLE.obj            0       88        0      
    +--+--------------------------+-------+---------+---------+
       Total:                     78      260       604    
                                                           
    .\Utils\
       uart_logs.obj              664     0         1462   
       util.obj                   244     17        16     
    +--+--------------------------+-------+---------+---------+
       Total:                     908     17        1478   
                                                           
    C:\Users\Sadra\Desktop\Texas\Prj2\ProjectZeroApp_CC2650LAUNCHXL\Debug\configPkg\package\cfg\
       appBLE_UartLog_pem3.oem3   954     7722      3538   
    +--+--------------------------+-------+---------+---------+
       Total:                     954     7722      3538   
                                                           
    C:/Users/Sadra/Desktop/Texas/dev.ti/ble_cc26xx_2_01_00_44423_cloud__win/tirtos_simplelink_2_13_00_06/packages/ti/drivers/lib/drivers_cc26xxware.aem3
       UARTCC26XX.oem3            2414    104       17     
       SPICC26XXDMA.oem3          1928    84        65     
       PINCC26XX.oem3             1478    0         220    
       UDMACC26XX.oem3            168     0         0      
       UART.oem3                  58      36        0      
       SPI.oem3                   54      32        0      
    +--+--------------------------+-------+---------+---------+
       Total:                     6100    256       302    
                                                           
    C:/Users/Sadra/Desktop/Texas/dev.ti/ble_cc26xx_2_01_00_44423_cloud__win/tirtos_simplelink_2_13_00_06/products/cc26xxware_2_21_01_15600/driverlib/bin/ccs/driverlib.lib
       setup.obj                  1666    0         0      
       sys_ctrl.obj               626     0         8      
       osc.obj                    584     0         20     
       chipinfo.obj               220     0         0      
       ddi.obj                    152     0         0      
       aon_batmon.obj             44      0         0      
       aon_rtc.obj                40      0         0      
       cpu.obj                    24      0         0      
       vims.obj                   14      0         0      
       driverlib_release.obj      0       0         1      
    +--+--------------------------+-------+---------+---------+
       Total:                     3370    0         29     
                                                           
    C:\Users\Sadra\Desktop\Texas\dev.ti\ble_cc26xx_2_01_00_44423_cloud__win\simplelink\ble_cc26xx_2_01_00_44423_cloud\Projects\ble\ProjectZero\CC26xx\CCS\Config\src\sysbios\sysbios.aem3
       mangled__BIOS_lib.obj      6709    17        28     
    +--+--------------------------+-------+---------+---------+
       Total:                     6709    17        28     
                                                           
    C:\ti\ccsv6\tools\compiler\arm_15.12.3.LTS\lib\rtsv7M3_T_le_eabi.lib
       ull_div_t2.obj             500     0         0      
       fd_mul_t2.obj              252     0         0      
       memcpy_t2.obj              156     0         0      
       memset_t2.obj              122     0         0      
       copy_decompress_rle.obj    112     0         0      
       exit.obj                   84      0         12     
       cpy_tbl.obj                76      0         0      
       fd_toi_t2.obj              72      0         0      
       u_divt2.obj                64      0         0      
       memcmp.obj                 34      0         0      
       u_tofd_t2.obj              32      0         0      
       _lock.obj                  20      0         8      
       args_main.obj              24      0         0      
       ll_mul_t2.obj              24      0         0      
       strlen.obj                 20      0         0      
       copy_decompress_none.obj   14      0         0      
       stkdepth_vars.obj          0       0         4      
       i_div0.obj                 2       0         0      
    +--+--------------------------+-------+---------+---------+
       Total:                     1608    0         24     
                                                           
    C:\ti\tirtos_simplelink_2_13_00_06\products\bios_6_42_00_08\packages\ti\targets\arm\rtsarm\lib\auto_init.aem3
       auto_init.oem3             160     0         0      
    +--+--------------------------+-------+---------+---------+
       Total:                     160     0         0      
                                                           
    C:\ti\tirtos_simplelink_2_13_00_06\products\bios_6_42_00_08\packages\ti\targets\arm\rtsarm\lib\boot.aem3
       boot.oem3                  68      0         0      
    +--+--------------------------+-------+---------+---------+
       Total:                     68      0         0      
                                                           
       Stack:                     0       0         1024   
       Linker Generated:          512     1980      0      
    +--+--------------------------+-------+---------+---------+
       Grand Total:               49409   10793     13784  


LINKER GENERATED COPY TABLES

__TI_cinit_table @ 0001fabc records: 17, size/record: 8, table size: 136
	.data: load addr=0001f330, load size=00000618 bytes, run addr=20002c60, run size=00000894 bytes, compression=rle
	.data:ti_sysbios_family_arm_m3_Hwi_Module__state__V: load addr=0001f948, load size=0000002d bytes, run addr=20000144, run size=00000034 bytes, compression=rle
	.data:ti_sysbios_knl_Task_Module__state__V: load addr=0001f978, load size=0000002c bytes, run addr=20000100, run size=00000044 bytes, compression=rle
	.data:ti_sysbios_knl_Clock_Module__state__V: load addr=0001f9a8, load size=00000021 bytes, run addr=20000178, run size=0000002c bytes, compression=rle
	.data:ti_sysbios_BIOS_Module__state__V: load addr=0001f9d0, load size=0000001f bytes, run addr=200001a4, run size=00000024 bytes, compression=rle
	.data:ti_sysbios_knl_Swi_Module__state__V: load addr=0001f9f0, load size=00000011 bytes, run addr=200001c8, run size=0000001c bytes, compression=rle
	.data:ti_sysbios_family_arm_cc26xx_Timer_Module__state__V: load addr=0001fa08, load size=0000000d bytes, run addr=200001e4, run size=00000008 bytes, compression=rle
	.bss: load addr=0001fa18, load size=0000000b bytes, run addr=20000520, run size=0000273a bytes, compression=rle
	.data:xdc_runtime_Memory_Module__state__V: load addr=0001fa28, load size=0000000a bytes, run addr=20000200, run size=00000004 bytes, compression=rle
	.TI.bound:dmaRxControlTableEntry0: load addr=0001fa38, load size=00000009 bytes, run addr=20000430, run size=00000010 bytes, compression=rle
	.TI.bound:dmaRxControlTableEntry1: load addr=0001fa48, load size=00000009 bytes, run addr=20000500, run size=00000010 bytes, compression=rle
	.TI.bound:dmaTxControlTableEntry0: load addr=0001fa58, load size=00000009 bytes, run addr=20000440, run size=00000010 bytes, compression=rle
	.TI.bound:dmaTxControlTableEntry1: load addr=0001fa68, load size=00000009 bytes, run addr=20000510, run size=00000010 bytes, compression=rle
	.data:ti_sysbios_family_arm_cc26xx_TimestampProvider_Module__state__V: load addr=0001fa78, load size=00000009 bytes, run addr=200001ec, run size=00000004 bytes, compression=rle
	.data:xdc_runtime_Startup_Module__state__V: load addr=0001fa88, load size=00000009 bytes, run addr=200001f0, run size=00000008 bytes, compression=rle
	.data:xdc_runtime_System_Module__state__V: load addr=0001fa98, load size=00000009 bytes, run addr=200001f8, run size=00000008 bytes, compression=rle
	.vecs: load addr=0001faa8, load size=00000009 bytes, run addr=20000000, run size=000000c8 bytes, compression=rle


LINKER GENERATED HANDLER TABLE

__TI_handler_table @ 0001fab4 records: 2, size/record: 4, table size: 8
	index: 0, handler: __TI_decompress_rle24
	index: 1, handler: __TI_decompress_none


FAR CALL TRAMPOLINES

callee name               trampoline name
   callee addr  tramp addr   call addr  call info
--------------  -----------  ---------  ----------------
xdc_runtime_System_exit__E  $Tramp$TT$L$PI$$xdc_runtime_System_exit__E
   1001c7d1     0000a2a0     0000a288   boot.aem3 : boot.oem3 (.text)
                             0000c07a   appBLE_UartLog_pem3.oem3 (.text:ti_sysbios_BIOS_exitFunc__I)
ti_sysbios_knl_Task_construct  $Tramp$TT$L$PI$$ti_sysbios_knl_Task_construct
   1001b125     0000a730     0000a71c   peripheral.obj (.text:GAPRole_createTask)
                             0000a814   ProjectZero.obj (.text:ProjectZero_createTask)
ti_sysbios_knl_Swi_Params__init__S  $Tramp$TT$L$PI$$ti_sysbios_knl_Swi_Params__init__S
   1001c1cd     0000abb4     0000ab8a   ProjectZero.obj (.text:SW_interrupt_init)
xdc_runtime_Error_init__E  $Tramp$TT$L$PI$$xdc_runtime_Error_init__E
   1001c841     0000abbc     0000ab94   ProjectZero.obj (.text:SW_interrupt_init)
ti_sysbios_knl_Swi_create  $Tramp$TT$L$PI$$ti_sysbios_knl_Swi_create
   1001ad05     0000abc4     0000ab9e   ProjectZero.obj (.text:SW_interrupt_init)
ti_sysbios_BIOS_start__E  $Tramp$TT$L$PI$$ti_sysbios_BIOS_start__E
   1001c055     0000ac3c     0000ac30   main.obj (.text:main)
ti_sysbios_hal_Hwi_create  $Tramp$TT$L$PI$$ti_sysbios_hal_Hwi_create
   1001ab79     0000b17c     0000b16a   ICall.obj (.text:ICall_primRegisterISR)
                             0000b1a4   ICall.obj (.text:ICall_primRegisterISR_Ext)
ti_sysbios_BIOS_setThreadType__E  $Tramp$TT$L$PI$$ti_sysbios_BIOS_setThreadType__E
   1001c045     0000b30c     0000b2e8   appBLE_UartLog_pem3.oem3 (.text:ti_sysbios_BIOS_atExitFunc__I)
                             0000c074   appBLE_UartLog_pem3.oem3 (.text:ti_sysbios_BIOS_exitFunc__I)
ti_sysbios_knl_Queue_put__E  $Tramp$TT$L$PI$$ti_sysbios_knl_Queue_put__E
   1001bf2d     0000b344     0000b332   sysbios.aem3 : mangled__BIOS_lib.obj (.text:ti_sysbios_family_arm_cc26xx_Power_registerNotify__E)
xdc_runtime_Core_createObject__I  $Tramp$TT$L$PI$$xdc_runtime_Core_createObject__I
   1001c405     0000b3ac     0000b390   appBLE_UartLog_pem3.oem3 (.text:xdc_runtime_LoggerCallback_Object__create__S)
xdc_runtime_System_atexit__E  $Tramp$TT$L$PI$$xdc_runtime_System_atexit__E
   1001c681     0000ba64     0000ba44   appBLE_UartLog_pem3.oem3 (.text:ti_sysbios_BIOS_startFunc__I)
ti_sysbios_family_arm_cc26xx_Timer_startup__E  $Tramp$TT$L$PI$$ti_sysbios_family_arm_cc26xx_Timer_startup__E
   1001b795     0000ba6c     0000ba4c   appBLE_UartLog_pem3.oem3 (.text:ti_sysbios_BIOS_startFunc__I)
ti_sysbios_hal_Hwi_startup__E  $Tramp$TT$L$PI$$ti_sysbios_hal_Hwi_startup__E
   1001c28d     0000ba74     0000ba50   appBLE_UartLog_pem3.oem3 (.text:ti_sysbios_BIOS_startFunc__I)
ti_sysbios_knl_Swi_startup__E  $Tramp$TT$L$PI$$ti_sysbios_knl_Swi_startup__E
   1001c23d     0000ba7c     0000ba54   appBLE_UartLog_pem3.oem3 (.text:ti_sysbios_BIOS_startFunc__I)
ti_sysbios_knl_Task_startup__E  $Tramp$TT$L$PI$$ti_sysbios_knl_Task_startup__E
   1001c309     0000ba84     0000ba58   appBLE_UartLog_pem3.oem3 (.text:ti_sysbios_BIOS_startFunc__I)
ti_sysbios_BIOS_RtsGateProxy_enter__E  $Tramp$TT$L$PI$$ti_sysbios_BIOS_RtsGateProxy_enter__E
   1001c249     0000bc94     0000bc7a   appBLE_UartLog_pem3.oem3 (.text:ti_sysbios_BIOS_rtsLock__I)
ti_sysbios_knl_Queue_remove__E  $Tramp$TT$L$PI$$ti_sysbios_knl_Queue_remove__E
   1001c121     0000bde0     0000bdd2   sysbios.aem3 : mangled__BIOS_lib.obj (.text:ti_sysbios_family_arm_cc26xx_Power_unregisterNotify__E)
ti_sysbios_BIOS_RtsGateProxy_leave__E  $Tramp$TT$L$PI$$ti_sysbios_BIOS_RtsGateProxy_leave__E
   1001c24d     0000bfd8     0000bfce   appBLE_UartLog_pem3.oem3 (.text:ti_sysbios_BIOS_rtsUnlock__I)
ti_sysbios_knl_Clock_logTick__E  $Tramp$TT$L$PI$$ti_sysbios_knl_Clock_logTick__E
   1001be67     0000c148     0000c136   appBLE_UartLog_pem3.oem3 (.text:ti_sysbios_knl_Clock_doTick__I)
xdc_runtime_Startup_startMods__I  $Tramp$TT$L$PI$$xdc_runtime_Startup_startMods__I
   1001c30d     0000c164     0000c15a   appBLE_UartLog_pem3.oem3 (.text:xdc_runtime_Startup_exec__I)
ti_sysbios_family_arm_m3_Hwi_enableFxn__E  $Tramp$TT$L$PI$$ti_sysbios_family_arm_m3_Hwi_enableFxn__E
   1001c155     0000c258     0000c24a   ICall.obj (.text:ICall_primEnableMInt)
ti_sysbios_knl_Task_enable__E  $Tramp$TT$L$PI$$ti_sysbios_knl_Task_enable__E
   1001c243     0000c260     0000c24e   ICall.obj (.text:ICall_primEnableMInt)
ti_sysbios_hal_Hwi_disableInterrupt__E  $Tramp$TT$L$PI$$ti_sysbios_hal_Hwi_disableInterrupt__E
   1001c281     0000c330     0000c328   ICall.obj (.text:ICall_primDisableInt)
ti_sysbios_hal_Hwi_enableInterrupt__E  $Tramp$TT$L$PI$$ti_sysbios_hal_Hwi_enableInterrupt__E
   1001c285     0000c344     0000c33c   ICall.obj (.text:ICall_primEnableInt)
xdc_runtime_Core_assignParams__I  $Tramp$TT$L$PI$$xdc_runtime_Core_assignParams__I
   1001c5f1     0000c3dc     0000c3d4   sysbios.aem3 : mangled__BIOS_lib.obj (.text:ti_sysbios_hal_Hwi_Params__init__S)
ti_sysbios_knl_Queue_enqueue__E  $Tramp$TT$L$PI$$ti_sysbios_knl_Queue_enqueue__E
   1001c1b5     0000c4f8     00009c60   ProjectZero.obj (.text:user_enqueueCharDataMsg)
                             0000a662   ProjectZero.obj (.text:user_enqueueRawAppMsg)
ti_sysbios_knl_Clock_destruct  $Tramp$TT$L$PI$$ti_sysbios_knl_Clock_destruct
   1001c2b9     0000c500     00009156   drivers_cc26xxware.aem3 : UARTCC26XX.oem3 (.text:UARTCC26XX_close)
ti_sysbios_knl_Semaphore_destruct  $Tramp$TT$L$PI$$ti_sysbios_knl_Semaphore_destruct
   1001c2e1     0000c508     00009142   drivers_cc26xxware.aem3 : UARTCC26XX.oem3 (.text:UARTCC26XX_close)
                             0000914e                           : UARTCC26XX.oem3 (.text:UARTCC26XX_close)
                             00009e92                           : SPICC26XXDMA.oem3 (.text:SPICC26XXDMA_close)
ti_sysbios_family_arm_m3_Hwi_destruct  $Tramp$TT$L$PI$$ti_sysbios_family_arm_m3_Hwi_destruct
   1001c261     0000c510     00009136   drivers_cc26xxware.aem3 : UARTCC26XX.oem3 (.text:UARTCC26XX_close)
                             00009e80                           : SPICC26XXDMA.oem3 (.text:SPICC26XXDMA_close)
                             0000b60e                           : UDMACC26XX.oem3 (.text:UDMACC26XX_close)
ti_sysbios_knl_Semaphore_create  $Tramp$TT$L$PI$$ti_sysbios_knl_Semaphore_create
   1001b5ad     0000c518     0000904c   ICall.obj (.text:ICall_newTask)
                             0000a1ba   ICall.obj (.text:ICall_primCreateSemaphore)
ti_sysbios_knl_Task_create  $Tramp$TT$L$PI$$ti_sysbios_knl_Task_create
   1001ae19     0000c520     00008b6c   ICall.obj (.text:ICall_createRemoteTasks)
                             0000a200   ICall.obj (.text:ICall_primCreateTask)
ti_sysbios_knl_Task_Params__init__S  $Tramp$TT$L$PI$$ti_sysbios_knl_Task_Params__init__S
   1001c1d9     0000c528     00008b4e   ICall.obj (.text:ICall_createRemoteTasks)
                             0000a1ea   ICall.obj (.text:ICall_primCreateTask)
                             0000a702   peripheral.obj (.text:GAPRole_createTask)
                             0000a7fa   ProjectZero.obj (.text:ProjectZero_createTask)
ti_sysbios_knl_Queue_dequeue__E  $Tramp$TT$L$PI$$ti_sysbios_knl_Queue_dequeue__E
   1001c1a9     0000c530     000088e2   ProjectZero.obj (.text:ProjectZero_taskFxn)
ti_sysbios_knl_Clock_create  $Tramp$TT$L$PI$$ti_sysbios_knl_Clock_create
   1001b3ed     0000c538     0000851c   ICall.obj (.text:ICall_primSetTimer)
ti_sysbios_knl_Clock_scheduleNextTick__E  $Tramp$TT$L$PI$$ti_sysbios_knl_Clock_scheduleNextTick__E
   1001bebd     0000c540     00008236   sysbios.aem3 : mangled__BIOS_lib.obj (.text:ti_sysbios_knl_Clock_workFuncDynamic__E)
ti_sysbios_knl_Clock_walkQueueDynamic__E  $Tramp$TT$L$PI$$ti_sysbios_knl_Clock_walkQueueDynamic__E
   1001a80d     0000c548     000081f8   sysbios.aem3 : mangled__BIOS_lib.obj (.text:ti_sysbios_knl_Clock_workFuncDynamic__E)
                             00008216                : mangled__BIOS_lib.obj (.text:ti_sysbios_knl_Clock_workFuncDynamic__E)
ti_sysbios_BIOS_getCpuFreq__E  $Tramp$TT$L$PI$$ti_sysbios_BIOS_getCpuFreq__E
   1001bff9     0000c550     00007b74   drivers_cc26xxware.aem3 : UARTCC26XX.oem3 (.text:UARTCC26XX_initHw)
                             000095ba                           : SPICC26XXDMA.oem3 (.text:SPICC26XXDMA_initHw)
ti_sysbios_knl_Semaphore_post__E  $Tramp$TT$L$PI$$ti_sysbios_knl_Semaphore_post__E
   1001ac41     0000c558     0000750a   ICall.obj (.text:ICall_primWaitMatch)
                             00008850   drivers_cc26xxware.aem3 : PINCC26XX.oem3 (.text:PIN_open)
                             00008f92   ICall.obj (.text:ICall_primSend)
                             0000931c   drivers_cc26xxware.aem3 : PINCC26XX.oem3 (.text:PIN_add)
                             00009c68   ProjectZero.obj (.text:user_enqueueCharDataMsg)
                             0000a66a   ProjectZero.obj (.text:user_enqueueRawAppMsg)
                             0000bf84   peripheral.obj (.text:gapRole_setEvent)
                             0000c35c   ICall.obj (.text:ICall_primSignal)
                             0000c454   drivers_cc26xxware.aem3 : SPICC26XXDMA.oem3 (.text:SPICC26XXDMA_transferCallback)
                             0000c46c                           : UARTCC26XX.oem3 (.text:readSemCallback)
                             0000c474                           : UARTCC26XX.oem3 (.text:writeSemCallback)
ti_sysbios_knl_Clock_getTicks__E  $Tramp$TT$L$PI$$ti_sysbios_knl_Clock_getTicks__E
   1001b6d9     0000c560     00007482   ICall.obj (.text:ICall_primWaitMatch)
                             000074ec   ICall.obj (.text:ICall_primWaitMatch)
                             0000c27a   ICall.obj (.text:ICall_primGetTicks)
ti_sysbios_knl_Task_self__E  $Tramp$TT$L$PI$$ti_sysbios_knl_Task_self__E
   1001c1e5     0000c568     0000743a   ICall.obj (.text:ICall_primWaitMatch)
                             000093a8   ICall.obj (.text:ICall_primEnroll)
                             00009548   ICall.obj (.text:ICall_primThreadServes)
                             00009a84   ICall.obj (.text:ICall_primGetEntityId)
                             00009ad8   ICall.obj (.text:ICall_primRegisterApp)
                             00009cd0   ICall.obj (.text:ICall_primWait)
                             0000afb0   ICall.obj (.text:ICall_primFetchMsg)
ti_sysbios_knl_Clock_start__E  $Tramp$TT$L$PI$$ti_sysbios_knl_Clock_start__E
   1001bfe3     0000c570     000072b0   sysbios.aem3 : mangled__BIOS_lib.obj (.text:ti_sysbios_family_arm_cc26xx_Power_standbyPolicy__E)
                             00007754   ProjectZero.obj (.text:buttonCallbackFxn)
                             0000775c   ProjectZero.obj (.text:buttonCallbackFxn)
                             00008568   ICall.obj (.text:ICall_primSetTimer)
                             000087c6   drivers_cc26xxware.aem3 : UARTCC26XX.oem3 (.text:writeFinishedDoCallback)
                             000089f2   sysbios.aem3 : mangled__BIOS_lib.obj (.text:ti_sysbios_family_arm_cc26xx_Power_LF_clockFunc__E)
                             000096a2   appBLE_UartLog_pem3.oem3 (.text:ti_sysbios_family_arm_cc26xx_Power_XOSC_HF_clockFunc__E)
                             00009e4c   drivers_cc26xxware.aem3 : UARTCC26XX.oem3 (.text:startTxFifoEmptyClk)
                             0000a5a4   appBLE_UartLog_pem3.oem3 (.text:ti_sysbios_family_arm_cc26xx_Power_XOSC_HF)
                             0000b072   util.obj (.text:Util_restartClock)
ti_sysbios_knl_Clock_setTimeout__E  $Tramp$TT$L$PI$$ti_sysbios_knl_Clock_setTimeout__E
   1001c2c1     0000c578     000072a8   sysbios.aem3 : mangled__BIOS_lib.obj (.text:ti_sysbios_family_arm_cc26xx_Power_standbyPolicy__E)
                             00008562   ICall.obj (.text:ICall_primSetTimer)
                             000087c0   drivers_cc26xxware.aem3 : UARTCC26XX.oem3 (.text:writeFinishedDoCallback)
                             000089ea   sysbios.aem3 : mangled__BIOS_lib.obj (.text:ti_sysbios_family_arm_cc26xx_Power_LF_clockFunc__E)
                             0000969c   appBLE_UartLog_pem3.oem3 (.text:ti_sysbios_family_arm_cc26xx_Power_XOSC_HF_clockFunc__E)
                             00009e46   drivers_cc26xxware.aem3 : UARTCC26XX.oem3 (.text:startTxFifoEmptyClk)
                             0000a59e   appBLE_UartLog_pem3.oem3 (.text:ti_sysbios_family_arm_cc26xx_Power_XOSC_HF)
                             0000b06c   util.obj (.text:Util_restartClock)
ti_sysbios_knl_Clock_TimerProxy_getCurrentTick__E  $Tramp$TT$L$PI$$ti_sysbios_knl_Clock_TimerProxy_getCurrentTick__E
   1001c095     0000c580     00007278   sysbios.aem3 : mangled__BIOS_lib.obj (.text:ti_sysbios_family_arm_cc26xx_Power_standbyPolicy__E)
                             000081c4                : mangled__BIOS_lib.obj (.text:ti_sysbios_knl_Clock_workFuncDynamic__E)
ti_sysbios_knl_Semaphore_pend__E  $Tramp$TT$L$PI$$ti_sysbios_knl_Semaphore_pend__E
   1001a0cd     0000c588     00006aec   drivers_cc26xxware.aem3 : UARTCC26XX.oem3 (.text:UARTCC26XX_write)
                             00006b28                           : UARTCC26XX.oem3 (.text:UARTCC26XX_write)
                             00007496   ICall.obj (.text:ICall_primWaitMatch)
                             00007c84   drivers_cc26xxware.aem3 : SPICC26XXDMA.oem3 (.text:SPICC26XXDMA_transfer)
                             00007c9a                           : SPICC26XXDMA.oem3 (.text:SPICC26XXDMA_transfer)
                             00007d26                           : UARTCC26XX.oem3 (.text:UARTCC26XX_read)
                             000087ee                           : PINCC26XX.oem3 (.text:PIN_open)
                             00008d0c                           : UARTCC26XX.oem3 (.text:writeTxFifoFlush)
                             000092f0                           : PINCC26XX.oem3 (.text:PIN_add)
                             00009d10   ICall.obj (.text:ICall_primWait)
                             0000ae60   ICall.obj (.text:ICall_primWaitSemaphore)
ti_sysbios_knl_Clock_stop__E  $Tramp$TT$L$PI$$ti_sysbios_knl_Clock_stop__E
   1001c225     0000c590     00006a94   drivers_cc26xxware.aem3 : UARTCC26XX.oem3 (.text:UARTCC26XX_write)
                             000072be   sysbios.aem3 : mangled__BIOS_lib.obj (.text:ti_sysbios_family_arm_cc26xx_Power_standbyPolicy__E)
                             0000854e   ICall.obj (.text:ICall_primSetTimer)
                             00008756   drivers_cc26xxware.aem3 : UARTCC26XX.oem3 (.text:writeFinishedDoCallback)
                             00009e1a                           : UARTCC26XX.oem3 (.text:startTxFifoEmptyClk)
                             0000a596   appBLE_UartLog_pem3.oem3 (.text:ti_sysbios_family_arm_cc26xx_Power_XOSC_HF)
                             0000b056   util.obj (.text:Util_restartClock)
                             0000c046   ICall.obj (.text:ICall_primStopTimer)
                             0000c4e4   util.obj (.text:Util_stopClock)
ti_sysbios_family_arm_m3_Hwi_restoreFxn__E  $Tramp$TT$L$PI$$ti_sysbios_family_arm_m3_Hwi_restoreFxn__E
   1001c219     0000c598     0000568e   drivers_cc26xxware.aem3 : UARTCC26XX.oem3 (.text:UARTCC26XX_open)
                             0000569e                           : UARTCC26XX.oem3 (.text:UARTCC26XX_open)
                             0000572e                           : UARTCC26XX.oem3 (.text:UARTCC26XX_open)
                             0000620c                           : SPICC26XXDMA.oem3 (.text:SPICC26XXDMA_open)
                             0000621c                           : SPICC26XXDMA.oem3 (.text:SPICC26XXDMA_open)
                             00006284                           : SPICC26XXDMA.oem3 (.text:SPICC26XXDMA_open)
                             00006988                           : SPICC26XXDMA.oem3 (.text:SPICC26XXDMA_transferCancel)
                             00006a0c                           : SPICC26XXDMA.oem3 (.text:SPICC26XXDMA_transferCancel)
                             00006a5a                           : SPICC26XXDMA.oem3 (.text:SPICC26XXDMA_transferCancel)
                             00006aa2                           : UARTCC26XX.oem3 (.text:UARTCC26XX_write)
                             00006ac0                           : UARTCC26XX.oem3 (.text:UARTCC26XX_write)
                             00006b5e                           : UARTCC26XX.oem3 (.text:UARTCC26XX_write)
                             00006cfa                           : SPICC26XXDMA.oem3 (.text:SPICC26XXDMA_hwiFxn)
                             00007c06                           : SPICC26XXDMA.oem3 (.text:SPICC26XXDMA_transfer)
                             00007c1a                           : SPICC26XXDMA.oem3 (.text:SPICC26XXDMA_transfer)
                             00007c76                           : SPICC26XXDMA.oem3 (.text:SPICC26XXDMA_transfer)
                             00007cc8                           : UARTCC26XX.oem3 (.text:UARTCC26XX_read)
                             00007ce0                           : UARTCC26XX.oem3 (.text:UARTCC26XX_read)
                             00007cfe                           : UARTCC26XX.oem3 (.text:UARTCC26XX_read)
                             00007d4c                           : UARTCC26XX.oem3 (.text:UARTCC26XX_read)
                             00007eca                           : PINCC26XX.oem3 (.text:PINCC26XX_setIoCfg)
                             0000877e                           : UARTCC26XX.oem3 (.text:writeFinishedDoCallback)
                             00008916                           : UARTCC26XX.oem3 (.text:UARTCC26XX_writeCancel)
                             00008922                           : UARTCC26XX.oem3 (.text:UARTCC26XX_writeCancel)
                             00008964                           : UARTCC26XX.oem3 (.text:UARTCC26XX_writeCancel)
                             00008b10   uart_logs.obj (.text:uartLog_outputFxn)
                             00008c98   uart_logs.obj (.text:uartLog_flush)
                             00009162   drivers_cc26xxware.aem3 : UARTCC26XX.oem3 (.text:UARTCC26XX_close)
                             00009202                           : UARTCC26XX.oem3 (.text:UARTCC26XX_readCancel)
                             00009230                           : UARTCC26XX.oem3 (.text:UARTCC26XX_readCancel)
                             0000924c                           : UARTCC26XX.oem3 (.text:UARTCC26XX_readCancel)
                             000096a8   appBLE_UartLog_pem3.oem3 (.text:ti_sysbios_family_arm_cc26xx_Power_XOSC_HF_clockFunc__E)
                             0000986a   drivers_cc26xxware.aem3 : UDMACC26XX.oem3 (.text:UDMACC26XX_open)
                             00009ea8                           : SPICC26XXDMA.oem3 (.text:SPICC26XXDMA_close)
                             00009f6a                           : UARTCC26XX.oem3 (.text:readFinishedDoCallback)
                             0000a0a6                           : PINCC26XX.oem3 (.text:PIN_setOutputEnable)
                             0000c030   ICall.obj (.text:ICall_leaveCSImpl)
ti_sysbios_family_arm_m3_Hwi_disableFxn__E  $Tramp$TT$L$PI$$ti_sysbios_family_arm_m3_Hwi_disableFxn__E
   1001c149     0000c5a0     00005684   drivers_cc26xxware.aem3 : UARTCC26XX.oem3 (.text:UARTCC26XX_open)
                             00005728                           : UARTCC26XX.oem3 (.text:UARTCC26XX_open)
                             00006200                           : SPICC26XXDMA.oem3 (.text:SPICC26XXDMA_open)
                             0000627c                           : SPICC26XXDMA.oem3 (.text:SPICC26XXDMA_open)
                             0000697e                           : SPICC26XXDMA.oem3 (.text:SPICC26XXDMA_transferCancel)
                             000069e8                           : SPICC26XXDMA.oem3 (.text:SPICC26XXDMA_transferCancel)
                             00006a84                           : UARTCC26XX.oem3 (.text:UARTCC26XX_write)
                             00006aa6                           : UARTCC26XX.oem3 (.text:UARTCC26XX_write)
                             00006b00                           : UARTCC26XX.oem3 (.text:UARTCC26XX_write)
                             00006b4a                           : UARTCC26XX.oem3 (.text:UARTCC26XX_write)
                             00006cd2                           : SPICC26XXDMA.oem3 (.text:SPICC26XXDMA_hwiFxn)
                             00007bfe                           : SPICC26XXDMA.oem3 (.text:SPICC26XXDMA_transfer)
                             00007c50                           : SPICC26XXDMA.oem3 (.text:SPICC26XXDMA_transfer)
                             00007cb8                           : UARTCC26XX.oem3 (.text:UARTCC26XX_read)
                             00007ce4                           : UARTCC26XX.oem3 (.text:UARTCC26XX_read)
                             00007d38                           : UARTCC26XX.oem3 (.text:UARTCC26XX_read)
                             00007eaa                           : PINCC26XX.oem3 (.text:PINCC26XX_setIoCfg)
                             00008766                           : UARTCC26XX.oem3 (.text:writeFinishedDoCallback)
                             00008906                           : UARTCC26XX.oem3 (.text:UARTCC26XX_writeCancel)
                             0000894e                           : UARTCC26XX.oem3 (.text:UARTCC26XX_writeCancel)
                             00008aa6   uart_logs.obj (.text:uartLog_outputFxn)
                             00008c5a   uart_logs.obj (.text:uartLog_flush)
                             0000915a   drivers_cc26xxware.aem3 : UARTCC26XX.oem3 (.text:UARTCC26XX_close)
                             000091f6                           : UARTCC26XX.oem3 (.text:UARTCC26XX_readCancel)
                             0000921a                           : UARTCC26XX.oem3 (.text:UARTCC26XX_readCancel)
                             00009656   appBLE_UartLog_pem3.oem3 (.text:ti_sysbios_family_arm_cc26xx_Power_XOSC_HF_clockFunc__E)
                             00009834   drivers_cc26xxware.aem3 : UDMACC26XX.oem3 (.text:UDMACC26XX_open)
                             00009e9e                           : SPICC26XXDMA.oem3 (.text:SPICC26XXDMA_close)
                             00009f52                           : UARTCC26XX.oem3 (.text:readFinishedDoCallback)
                             0000a090                           : PINCC26XX.oem3 (.text:PIN_setOutputEnable)
                             0000be10   ICall.obj (.text:ICall_enterCSImpl)
                             0000c240   ICall.obj (.text:ICall_primDisableMInt)
xdc_runtime_Text_ropeText__E  $Tramp$TT$L$PI$$xdc_runtime_Text_ropeText__E
   1001c7e9     0000c5a8     00005564   uart_logs.obj (.text:uartLog_doPrint)
                             00009c96   sysbios.aem3 : mangled__BIOS_lib.obj (.text:xdc_runtime_Text_visitRope2__I)
                             00009ca6                : mangled__BIOS_lib.obj (.text:xdc_runtime_Text_visitRope2__I)
ti_sysbios_family_arm_m3_Hwi_construct  $Tramp$TT$L$PI$$ti_sysbios_family_arm_m3_Hwi_construct
   1001af29     0000c5b0     00005188   drivers_cc26xxware.aem3 : PINCC26XX.oem3 (.text:PIN_init)
                             00005752                           : UARTCC26XX.oem3 (.text:UARTCC26XX_open)
                             000062a8                           : SPICC26XXDMA.oem3 (.text:SPICC26XXDMA_open)
                             0000985a                           : UDMACC26XX.oem3 (.text:UDMACC26XX_open)
ti_sysbios_family_arm_m3_Hwi_Params__init__S  $Tramp$TT$L$PI$$ti_sysbios_family_arm_m3_Hwi_Params__init__S
   1001c13d     0000c5b8     00005178   drivers_cc26xxware.aem3 : PINCC26XX.oem3 (.text:PIN_init)
                             0000573e                           : UARTCC26XX.oem3 (.text:UARTCC26XX_open)
                             00006294                           : SPICC26XXDMA.oem3 (.text:SPICC26XXDMA_open)
                             00009848                           : UDMACC26XX.oem3 (.text:UDMACC26XX_open)
ti_sysbios_knl_Semaphore_construct  $Tramp$TT$L$PI$$ti_sysbios_knl_Semaphore_construct
   1001b709     0000c5c0     0000511c   drivers_cc26xxware.aem3 : PINCC26XX.oem3 (.text:PIN_init)
                             00005772                           : UARTCC26XX.oem3 (.text:UARTCC26XX_open)
                             00005786                           : UARTCC26XX.oem3 (.text:UARTCC26XX_open)
                             000062c8                           : SPICC26XXDMA.oem3 (.text:SPICC26XXDMA_open)
ti_sysbios_knl_Semaphore_Params__init__S  $Tramp$TT$L$PI$$ti_sysbios_knl_Semaphore_Params__init__S
   1001c1c1     0000c5c8     0000510a   drivers_cc26xxware.aem3 : PINCC26XX.oem3 (.text:PIN_init)
                             0000575e                           : UARTCC26XX.oem3 (.text:UARTCC26XX_open)
                             000062b8                           : SPICC26XXDMA.oem3 (.text:SPICC26XXDMA_open)
                             0000a1a6   ICall.obj (.text:ICall_primCreateSemaphore)
ti_sysbios_knl_Task_restore__E  $Tramp$TT$L$PI$$ti_sysbios_knl_Task_restore__E
   1001ba49     0000c5d0     00003360   sysbios.aem3 : mangled__BIOS_lib.obj (.text:ti_sysbios_family_arm_cc26xx_Power_sleep__E)
                             00008b90   ICall.obj (.text:ICall_createRemoteTasks)
                             0000c038   ICall.obj (.text:ICall_leaveCSImpl)
ti_sysbios_knl_Swi_restore__E  $Tramp$TT$L$PI$$ti_sysbios_knl_Swi_restore__E
   1001b5e1     0000c5d8     00003356   sysbios.aem3 : mangled__BIOS_lib.obj (.text:ti_sysbios_family_arm_cc26xx_Power_sleep__E)
ti_sysbios_knl_Swi_disable__E  $Tramp$TT$L$PI$$ti_sysbios_knl_Swi_disable__E
   1001c0d5     0000c5e0     00003156   sysbios.aem3 : mangled__BIOS_lib.obj (.text:ti_sysbios_family_arm_cc26xx_Power_sleep__E)
                             0000b2de   appBLE_UartLog_pem3.oem3 (.text:ti_sysbios_BIOS_atExitFunc__I)
ti_sysbios_knl_Queue_next__E  $Tramp$TT$L$PI$$ti_sysbios_knl_Queue_next__E
   1001c2d9     0000c5e8     00003146   sysbios.aem3 : mangled__BIOS_lib.obj (.text:ti_sysbios_family_arm_cc26xx_Power_sleep__E)
                             000032f0                : mangled__BIOS_lib.obj (.text:ti_sysbios_family_arm_cc26xx_Power_sleep__E)
                             0000333c                : mangled__BIOS_lib.obj (.text:ti_sysbios_family_arm_cc26xx_Power_sleep__E)
                             00009908                : mangled__BIOS_lib.obj (.text:ti_sysbios_family_arm_cc26xx_Power_notify__I)
ti_sysbios_knl_Queue_head__E  $Tramp$TT$L$PI$$ti_sysbios_knl_Queue_head__E
   1001c2d5     0000c5f0     00003126   sysbios.aem3 : mangled__BIOS_lib.obj (.text:ti_sysbios_family_arm_cc26xx_Power_sleep__E)
                             000032d2                : mangled__BIOS_lib.obj (.text:ti_sysbios_family_arm_cc26xx_Power_sleep__E)
                             0000331e                : mangled__BIOS_lib.obj (.text:ti_sysbios_family_arm_cc26xx_Power_sleep__E)
                             000098ec                : mangled__BIOS_lib.obj (.text:ti_sysbios_family_arm_cc26xx_Power_notify__I)
ti_sysbios_knl_Queue_empty__E  $Tramp$TT$L$PI$$ti_sysbios_knl_Queue_empty__E
   1001c113     0000c5f8     0000310a   sysbios.aem3 : mangled__BIOS_lib.obj (.text:ti_sysbios_family_arm_cc26xx_Power_sleep__E)
                             000032be                : mangled__BIOS_lib.obj (.text:ti_sysbios_family_arm_cc26xx_Power_sleep__E)
                             00003312                : mangled__BIOS_lib.obj (.text:ti_sysbios_family_arm_cc26xx_Power_sleep__E)
                             000088d8   ProjectZero.obj (.text:ProjectZero_taskFxn)
                             000098e0   sysbios.aem3 : mangled__BIOS_lib.obj (.text:ti_sysbios_family_arm_cc26xx_Power_notify__I)
ti_sysbios_knl_Task_disable__E  $Tramp$TT$L$PI$$ti_sysbios_knl_Task_disable__E
   1001c0f5     0000c600     000030fc   sysbios.aem3 : mangled__BIOS_lib.obj (.text:ti_sysbios_family_arm_cc26xx_Power_sleep__E)
                             00008b34   ICall.obj (.text:ICall_createRemoteTasks)
                             0000b2e2   appBLE_UartLog_pem3.oem3 (.text:ti_sysbios_BIOS_atExitFunc__I)
                             0000be06   ICall.obj (.text:ICall_enterCSImpl)
                             0000c23c   ICall.obj (.text:ICall_primDisableMInt)
ti_sysbios_knl_Swi_post__E  $Tramp$TT$L$PI$$ti_sysbios_knl_Swi_post__E
   1001b321     0000c608     00002248   ProjectZero.obj (.text:SPI_transferCallback)
                             0000c13e   appBLE_UartLog_pem3.oem3 (.text:ti_sysbios_knl_Clock_doTick__I)
ti_sysbios_knl_Clock_construct  $Tramp$TT$L$PI$$ti_sysbios_knl_Clock_construct
   1001b579     0000c610     00000d50   ProjectZero.obj (.text:ProjectZero_init)
                             00000d68   ProjectZero.obj (.text:ProjectZero_init)
                             000057ae   drivers_cc26xxware.aem3 : UARTCC26XX.oem3 (.text:UARTCC26XX_open)
                             00009bbe   util.obj (.text:Util_constructClock)
ti_sysbios_knl_Clock_Params__init__S  $Tramp$TT$L$PI$$ti_sysbios_knl_Clock_Params__init__S
   1001c185     0000c618     00000d2c   ProjectZero.obj (.text:ProjectZero_init)
                             00005796   drivers_cc26xxware.aem3 : UARTCC26XX.oem3 (.text:UARTCC26XX_open)
                             00008508   ICall.obj (.text:ICall_primSetTimer)
                             00009b96   util.obj (.text:Util_constructClock)
ti_sysbios_knl_Task_exit__E  $Tramp$TT$L$PI$$ti_sysbios_knl_Task_exit__E
   1001b429     0000c620     00000c7c   ProjectZero.obj (.text:ProjectZero_init)
                             00000cd0   ProjectZero.obj (.text:ProjectZero_init)
                             00000d20   ProjectZero.obj (.text:ProjectZero_init)
ti_sysbios_knl_Queue_construct  $Tramp$TT$L$PI$$ti_sysbios_knl_Queue_construct
   1001b8f5     0000c628     00000c22   ProjectZero.obj (.text:ProjectZero_init)

[64 trampolines]
[240 trampoline calls]


GLOBAL SYMBOLS: SORTED ALPHABETICALLY BY Name 

address   name                                                                      
-------   ----                                                                      
0000b413  AONBatMonTemperatureGetDegC                                               
0001f098  BoardGpioInitTable                                                        
0001f175  ButtonServiceUUID                                                         
0000655d  ButtonService_AddService                                                  
00005d25  ButtonService_RegisterAppCBs                                              
0000190d  ButtonService_SetParameter                                                
0000dff0  Button_ServiceCBs                                                         
00009bd1  C$$EXIT                                                                   
0000aedb  ChipInfo_GetChipFamily                                                    
00008dc3  ChipInfo_GetHwRevision                                                    
0000be87  ChipInfo_GetPackageType                                                   
0001f185  DataServiceUUID                                                           
00007605  DataService_AddService                                                    
00005e5d  DataService_RegisterAppCBs                                                
00001c8d  DataService_SetParameter                                                  
0001f238  Data_ServiceCBs                                                           
0000c081  DevInfo_AddService                                                        
0000593d  DevInfo_SetParameter                                                      
0000a3f9  GAPBondMgr_LinkEst                                                        
0000b647  GAPBondMgr_LinkTerm                                                       
0000a8dd  GAPBondMgr_PasscodeRsp                                                    
0000b66f  GAPBondMgr_Register                                                       
0000a915  GAPBondMgr_SetParameter                                                   
00004cd5  GAPRole_GetParameter                                                      
0000917d  GAPRole_SendUpdateParam                                                   
00002d91  GAPRole_SetParameter                                                      
0000b9b1  GAPRole_StartDevice                                                       
0000b441  GAPRole_TerminateConnection                                               
0000a6f5  GAPRole_createTask                                                        
00009d71  GAP_DeviceInit                                                            
0000c16d  GAP_EndDiscoverable                                                       
0000a739  GAP_GetParamValue                                                         
0000c2f5  GAP_MakeDiscoverable                                                      
000000f9  GAP_RegisterForMsgs                                                       
0000af11  GAP_SetParamValue                                                         
0000c301  GAP_TerminateAuth                                                         
0000a439  GAP_TerminateLinkReq                                                      
0000a02d  GAP_UpdateAdvertisingData                                                 
0000c17d  GAP_UpdateLinkParamReq                                                    
0000c479  GATTServApp_AddService                                                    
0000baf5  GATTServApp_FindAttr                                                      
0000a94d  GATTServApp_InitCharCfg                                                   
00009a2d  GATTServApp_ProcessCCCWriteReq                                            
000080fd  GATTServApp_ProcessCharCfg                                                
0000c18d  GATTServApp_ReadCharCfg                                                   
0000a479  GATTServApp_RegisterService                                               
0000b919  GATTServApp_WriteCharCfg                                                  
0000c30d  GATT_Indication                                                           
0000bcbd  GATT_Notification                                                         
0000c441  GATT_RegisterForMsgs                                                      
0000a985  GATT_SendRsp                                                              
0000bb15  GATT_bm_alloc                                                             
0000bea1  GATT_bm_free                                                              
0000c449  GGS_AddService                                                            
0000beb9  GGS_SetParameter                                                          
0000b9d5  HCI_EXT_ConnEventNoticeCmd                                                
0000a14d  ICallPlatform_pwrConfigACAction                                           
0000bed1  ICallPlatform_pwrDispense                                                 
0000c22d  ICallPlatform_pwrGetTransitionState                                       
0000c19d  ICallPlatform_pwrGetXOSCStartupTime                                       
0000c095  ICallPlatform_pwrIsStableXOSCHF                                           
000094d5  ICallPlatform_pwrRegisterNotify                                           
0000bee9  ICallPlatform_pwrRequire                                                  
0000c3f1  ICallPlatform_pwrSwitchXOSCHF                                             
00008eb9  ICallPlatform_pwrUpdActivityCounter                                       
00008b2d  ICall_createRemoteTasks                                                   
20003388  ICall_dispatcher                                                          
0000be05  ICall_enterCSImpl                                                         
2000337c  ICall_enterCriticalSection                                                
0000a9bd  ICall_freeImpl                                                            
0000a9bd  ICall_heapFree                                                            
0000a9f5  ICall_heapInit                                                            
00008449  ICall_heapMalloc                                                          
0000a775  ICall_init                                                                
0000c029  ICall_leaveCSImpl                                                         
20003380  ICall_leaveCriticalSection                                                
0000c47f  ICall_mallocImpl                                                          
0001f250  LED_ServiceCBs                                                            
0001f195  LedServiceUUID                                                            
00007ee1  LedService_AddService                                                     
00005f91  LedService_RegisterAppCBs                                                 
00004055  LedService_SetParameter                                                   
0000b7d9  NOROM_AONRTCCurrentCompareValueGet                                        
0000c365  NOROM_CPUcpsid                                                            
0000c371  NOROM_CPUcpsie                                                            
0000a375  NOROM_DDI16BitfieldRead                                                   
0000992d  NOROM_DDI16BitfieldWrite                                                  
0000b93f  NOROM_OSCClockSourceGet                                                   
00009d1f  NOROM_OSCClockSourceSet                                                   
0000a679  NOROM_OSCInterfaceEnable                                                  
0000c285  NOROM_VIMSModeGet                                                         
0000925d  OSCHF_AttemptToSwitchToXosc                                               
000086b5  OSCHF_GetStartupTime                                                      
000097cd  OSCHF_SwitchToRcOscTurnOffXosc                                            
0000aa9d  OSCHF_TurnOnXosc                                                          
0000a7b1  PINCC26XX_getConfig                                                       
0000b549  PINCC26XX_setMux                                                          
20002814  PIN_HandleTable                                                           
20002c40  PIN_NumPins                                                               
000092cd  PIN_add                                                                   
0000bcf9  PIN_close                                                                 
0000bf19  PIN_getConfig                                                             
0000c0a9  PIN_getInputValue                                                         
00005041  PIN_init                                                                  
000087dd  PIN_open                                                                  
0000c37d  PIN_registerIntCb                                                         
00009715  PIN_remove                                                                
0000b015  PIN_setConfig                                                             
0000aad5  PIN_setInterrupt                                                          
0000a075  PIN_setOutputEnable                                                       
0000ab0d  PIN_setOutputValue                                                        
0000a7ed  ProjectZero_createTask                                                    
0000a25d  ResetISR                                                                  
UNDEFED   SHT$$INIT_ARRAY$$Base                                                     
UNDEFED   SHT$$INIT_ARRAY$$Limit                                                    
00009e61  SPICC26XXDMA_close                                                        
00009095  SPICC26XXDMA_control                                                      
0000de18  SPICC26XXDMA_fxnTable                                                     
0000c0bd  SPICC26XXDMA_init                                                         
000061f1  SPICC26XXDMA_open                                                         
00007bed  SPICC26XXDMA_transfer                                                     
00006975  SPICC26XXDMA_transferCancel                                               
000095f5  SPI_Init_PZ                                                               
0000c0d1  SPI_Params_init                                                           
0001f050  SPI_config                                                                
0001f0b8  SPI_defaultParams                                                         
0000bf31  SPI_open                                                                  
0000c405  SPI_transfer                                                              
0000ab7d  SW_interrupt_init                                                         
00009473  SysCtrlAdjustRechargeAfterPowerDown                                       
00004e95  SysCtrlSetRechargeBeforePowerDown                                         
0000940d  SysCtrl_DCDC_VoltageConditionalControl                                    
20002fe8  TSK_idle                                                                  
0000c0e5  ThisCodeIsBuiltForCC26xxHwRev22AndLater_HaltIfViolated                    
00009109  UARTCC26XX_close                                                          
0000b965  UARTCC26XX_control                                                        
0000dfc8  UARTCC26XX_fxnTable                                                       
0000751b  UARTCC26XX_hwiIntFxn                                                      
0000c1cd  UARTCC26XX_init                                                           
00005671  UARTCC26XX_open                                                           
00007cad  UARTCC26XX_read                                                           
000091ed  UARTCC26XX_readCancel                                                     
0000c485  UARTCC26XX_readPolling                                                    
00006a75  UARTCC26XX_write                                                          
000088fd  UARTCC26XX_writeCancel                                                    
0000c48b  UARTCC26XX_writePolling                                                   
0000bf49  UART_Params_init                                                          
0001f114  UART_config                                                               
0001f074  UART_defaultParams                                                        
0000bf61  UART_open                                                                 
0000c40f  UART_write                                                                
0000b5f3  UDMACC26XX_close                                                          
0001f208  UDMACC26XX_config                                                         
0000c419  UDMACC26XX_hwiIntFxn                                                      
00009825  UDMACC26XX_open                                                           
0000c389  UartLog_doInit                                                            
00009b7d  Util_constructClock                                                       
0000987d  Util_convertBdAddr2Str                                                    
0000c1dd  Util_isActive                                                             
0000b049  Util_restartClock                                                         
0000c4e5  Util_stopClock                                                            
00000000  __ASM__                                                                   
0000007e  __ISA__                                                                   
00000090  __PLAT__                                                                  
200043e4  __STACK_END                                                               
00000400  __STACK_SIZE                                                              
200043e4  __STACK_TOP                                                               
000000b7  __TARG__                                                                  
0001fabc  __TI_CINIT_Base                                                           
0001fb44  __TI_CINIT_Limit                                                          
0001fab4  __TI_Handler_Table_Base                                                   
0001fabc  __TI_Handler_Table_Limit                                                  
000083a9  __TI_auto_init                                                            
200033bc  __TI_cleanup_ptr                                                          
0000c293  __TI_decompress_none                                                      
0000c491  __TI_decompress_rle24                                                     
200033c0  __TI_dtors_ptr                                                            
200033c4  __TI_enable_exit_profile_output                                           
ffffffff  __TI_pprof_out_hndl                                                       
ffffffff  __TI_prof_data_size                                                       
ffffffff  __TI_prof_data_start                                                      
0001f330  __TI_static_base__                                                        
000000dc  __TRDR__                                                                  
0000a0bd  __aeabi_d2iz                                                              
00006d71  __aeabi_dmul                                                              
00000bbb  __aeabi_idiv0                                                             
0000bfa9  __aeabi_lmul                                                              
00008e3f  __aeabi_memclr                                                            
00008e3f  __aeabi_memclr4                                                           
00008e3f  __aeabi_memclr8                                                           
00008581  __aeabi_memcpy                                                            
00008581  __aeabi_memcpy4                                                           
00008581  __aeabi_memcpy8                                                           
00008e41  __aeabi_memset                                                            
00008e41  __aeabi_memset4                                                           
00008e41  __aeabi_memset8                                                           
0000bc55  __aeabi_ui2d                                                              
0000a4f9  __aeabi_uidiv                                                             
0000a4f9  __aeabi_uidivmod                                                          
0000471d  __aeabi_uldivmod                                                          
ffffffff  __binit__                                                                 
ffffffff  __c_args__                                                                
0001ffa8  __ccfg                                                                    
20003fe4  __stack                                                                   
0000bf91  _args_main                                                                
0000a25d  _c_int00                                                                  
20003428  _lock                                                                     
0000c107  _nop                                                                      
0000c0ff  _register_lock                                                            
0000c0f9  _register_unlock                                                          
2000342c  _unlock                                                                   
00009bd5  abort                                                                     
ffffffff  binit                                                                     
0001f1a5  bs_BUTTON0UUID                                                            
0001f1b5  bs_BUTTON1UUID                                                            
20002b6c  buf                                                                       
2000332f  buf_tr                                                                    
20002890  buff                                                                      
20002b2c  buff_log                                                                  
200033f8  buttonPinTable                                                            
0000dd72  characterUUID                                                             
0000dffc  clientCharCfgUUID                                                         
00009f95  copy_in                                                                   
0001f205  devInfo11073CertUUID                                                      
0001f25c  devInfoCBs                                                                
0001f2aa  devInfoFirmwareRevUUID                                                    
0001f314  devInfoHardwareRevUUID                                                    
0001f316  devInfoMfrNameUUID                                                        
0001f318  devInfoModelNumberUUID                                                    
0001f31a  devInfoPnpIdUUID                                                          
0001f31c  devInfoSerialNumberUUID                                                   
0001f31e  devInfoServUUID                                                           
0001f320  devInfoSoftwareRevUUID                                                    
0001f322  devInfoSystemIdUUID                                                       
20002c56  driverlib_release_0_43243                                                 
0001f1c5  ds_StreamUUID                                                             
0001f1d5  ds_StringUUID                                                             
0000c055  exceptionHandler                                                          
00009bdd  exit                                                                      
200028f4  gapRoleTask                                                               
20001f78  gapRoleTaskStack                                                          
0000bf79  gapRole_clockHandler                                                      
20002c48  handle                                                                    
200024d0  iBuff                                                                     
20003274  iHead                                                                     
20003278  iTail                                                                     
200033e0  lastAppOpcodeSent                                                         
20003404  ledPinTable                                                               
20002c57  linkDBNumConns                                                            
0000abcd  linkDB_NumConns                                                           
0001f1e5  ls_LED0UUID                                                               
0001f1f5  ls_LED1UUID                                                               
0000ac05  main                                                                      
200034e0  main_func_sp                                                              
0000bad3  memcmp                                                                    
00008581  memcpy                                                                    
00008e47  memset                                                                    
20002c4c  mySwi                                                                     
2000327c  oHead                                                                     
20003280  oTail                                                                     
0000ac45  osal_snv_read                                                             
0000ac7d  osal_snv_write                                                            
200033e4  pfnBMAlloc                                                                
200033e8  pfnBMFree                                                                 
0001f324  primaryServiceUUID                                                        
20002944  przTask                                                                   
20001c58  przTaskStack                                                              
200030b8  rfRegTbl                                                                  
0001f000  spiCC26XXDMAHWAttrs                                                       
20002380  spiCC26XXDMAObjects                                                       
0000c10d  strlen                                                                    
00006665  swiFunc                                                                   
200001a4  ti_sysbios_BIOS_Module__state__V                                          
1001bc29  ti_sysbios_BIOS_RtsGateProxy_Handle__label__S                             
UNDEFED   ti_sysbios_BIOS_RtsGateProxy_Handle__label__S__mangled__                  
1001bab9  ti_sysbios_BIOS_RtsGateProxy_Object__delete__S                            
UNDEFED   ti_sysbios_BIOS_RtsGateProxy_Object__delete__S__mangled__                 
1001c179  ti_sysbios_BIOS_RtsGateProxy_Params__init__S                              
UNDEFED   ti_sysbios_BIOS_RtsGateProxy_Params__init__S__mangled__                   
1001c249  ti_sysbios_BIOS_RtsGateProxy_enter__E                                     
1001c24d  ti_sysbios_BIOS_RtsGateProxy_leave__E                                     
1001c275  ti_sysbios_BIOS_RtsGateProxy_query__E                                     
UNDEFED   ti_sysbios_BIOS_RtsGateProxy_query__E__mangled__                          
0000b2dd  ti_sysbios_BIOS_atExitFunc__I                                             
0000c06b  ti_sysbios_BIOS_exitFunc__I                                               
1001c035  ti_sysbios_BIOS_exit__E                                                   
1001bff9  ti_sysbios_BIOS_getCpuFreq__E                                             
0000c3ad  ti_sysbios_BIOS_getThreadType__E                                          
0000503f  ti_sysbios_BIOS_nullFunc__I                                               
0000b9f9  ti_sysbios_BIOS_registerRTSLock__I                                        
0000ba1d  ti_sysbios_BIOS_removeRTSLock__I                                          
0000bc75  ti_sysbios_BIOS_rtsLock__I                                                
0000bfc1  ti_sysbios_BIOS_rtsUnlock__I                                              
1001c045  ti_sysbios_BIOS_setThreadType__E                                          
0000ba41  ti_sysbios_BIOS_startFunc__I                                              
1001c055  ti_sysbios_BIOS_start__E                                                  
00008049  ti_sysbios_family_arm_cc26xx_Boot_trimDevice                              
00008989  ti_sysbios_family_arm_cc26xx_Power_LF_clockFunc__E                        
0001f2b8  ti_sysbios_family_arm_cc26xx_Power_Module_State_clockObj__O               
0001f2bc  ti_sysbios_family_arm_cc26xx_Power_Module_State_lfClockObj__O             
0001f2c0  ti_sysbios_family_arm_cc26xx_Power_Module_State_notifyQ__O                
20002e00  ti_sysbios_family_arm_cc26xx_Power_Module__state__V                       
00008a15  ti_sysbios_family_arm_cc26xx_Power_Module_startup__E                      
0000c4e9  ti_sysbios_family_arm_cc26xx_Power_NOP                                    
0000bfe1  ti_sysbios_family_arm_cc26xx_Power_RFCORECLKS                             
0000a579  ti_sysbios_family_arm_cc26xx_Power_XOSC_HF                                
00009655  ti_sysbios_family_arm_cc26xx_Power_XOSC_HF_clockFunc__E                   
00002a45  ti_sysbios_family_arm_cc26xx_Power_auxISR__E                              
200034db  ti_sysbios_family_arm_cc26xx_Power_constraintCounts                       
0000de6c  ti_sysbios_family_arm_cc26xx_Power_db                                     
00007603  ti_sysbios_family_arm_cc26xx_Power_defaultClockFunc__E                    
000092cb  ti_sysbios_family_arm_cc26xx_Power_defaultNotifyTrapFunc__E               
0000c3b9  ti_sysbios_family_arm_cc26xx_Power_getDependencyCount__E                  
0000c3c5  ti_sysbios_family_arm_cc26xx_Power_getTransitionState__E                  
000086b5  ti_sysbios_family_arm_cc26xx_Power_getXoscStartupTime__E                  
00008305  ti_sysbios_family_arm_cc26xx_Power_initiateCalibration__E                 
0000b851  ti_sysbios_family_arm_cc26xx_Power_isDependencyActive                     
0000a5b9  ti_sysbios_family_arm_cc26xx_Power_isStableXOSC_HF__E                     
0001f2c4  ti_sysbios_family_arm_cc26xx_Power_notifyTrapFunc__C                      
000098d5  ti_sysbios_family_arm_cc26xx_Power_notify__I                              
20003357  ti_sysbios_family_arm_cc26xx_Power_refCount                               
0000b315  ti_sysbios_family_arm_cc26xx_Power_registerNotify__E                      
0000a8a1  ti_sysbios_family_arm_cc26xx_Power_releaseConstraint__E                   
00007a55  ti_sysbios_family_arm_cc26xx_Power_releaseDependency__E                   
20003410  ti_sysbios_family_arm_cc26xx_Power_resourceHandlers                       
0000aced  ti_sysbios_family_arm_cc26xx_Power_setConstraint__E                       
000078ad  ti_sysbios_family_arm_cc26xx_Power_setDependency__E                       
000030bd  ti_sysbios_family_arm_cc26xx_Power_sleep__E                               
00007251  ti_sysbios_family_arm_cc26xx_Power_standbyPolicy__E                       
00006f69  ti_sysbios_family_arm_cc26xx_Power_startFirstMeasurement__E               
0000b34d  ti_sysbios_family_arm_cc26xx_Power_switchXOSC_HF__E                       
0001f2c8  ti_sysbios_family_arm_cc26xx_Power_totalTicksSTANDBY__C                   
0000bdc5  ti_sysbios_family_arm_cc26xx_Power_unregisterNotify__E                    
0001f2cc  ti_sysbios_family_arm_cc26xx_Power_wakeDelaySTANDBY__C                    
00000502  ti_sysbios_family_arm_cc26xx_Timer_Module__id__C                          
1001bb49  ti_sysbios_family_arm_cc26xx_Timer_Module__startupDone__S                 
200001e4  ti_sysbios_family_arm_cc26xx_Timer_Module__state__V                       
1001ba71  ti_sysbios_family_arm_cc26xx_Timer_Module_startup__E                      
20003038  ti_sysbios_family_arm_cc26xx_Timer_Object__table__V                       
0000ba8d  ti_sysbios_family_arm_cc26xx_Timer_dynamicStub__E                         
0000bff9  ti_sysbios_family_arm_cc26xx_Timer_getCount64__E                          
0000a5f9  ti_sysbios_family_arm_cc26xx_Timer_getCurrentTick__E                      
1001c251  ti_sysbios_family_arm_cc26xx_Timer_getExpiredTicks__E                     
0000b879  ti_sysbios_family_arm_cc26xx_Timer_getMaxTicks__E                         
1001c255  ti_sysbios_family_arm_cc26xx_Timer_getPeriod__E                           
0000a2ed  ti_sysbios_family_arm_cc26xx_Timer_initDevice__I                          
1001a469  ti_sysbios_family_arm_cc26xx_Timer_periodicStub__E                        
1001b769  ti_sysbios_family_arm_cc26xx_Timer_postInit__I                            
000096b5  ti_sysbios_family_arm_cc26xx_Timer_setNextTick__E                         
1001c259  ti_sysbios_family_arm_cc26xx_Timer_setPeriod__E                           
0000ad25  ti_sysbios_family_arm_cc26xx_Timer_setThreshold__I                        
00008bb5  ti_sysbios_family_arm_cc26xx_Timer_start__E                               
00000484  ti_sysbios_family_arm_cc26xx_Timer_startupNeeded__C                       
1001b795  ti_sysbios_family_arm_cc26xx_Timer_startup__E                             
200001ec  ti_sysbios_family_arm_cc26xx_TimestampProvider_Module__state__V           
1001bb69  ti_sysbios_family_arm_cc26xx_TimestampProvider_Module_startup__E          
0000bc9d  ti_sysbios_family_arm_cc26xx_TimestampProvider_get32__E                   
1001b9d1  ti_sysbios_family_arm_cc26xx_TimestampProvider_get64__E                   
1001c12f  ti_sysbios_family_arm_cc26xx_TimestampProvider_getFreq__E                 
00000504  ti_sysbios_family_arm_cc26xx_TimestampProvider_useClockTimer__C           
00000488  ti_sysbios_family_arm_m3_Hwi_E_alreadyDefined__C                          
0000048c  ti_sysbios_family_arm_m3_Hwi_E_hwiLimitExceeded__C                        
1001aed1  ti_sysbios_family_arm_m3_Hwi_Instance_finalize__E                         
1001a3c9  ti_sysbios_family_arm_m3_Hwi_Instance_init__E                             
20003232  ti_sysbios_family_arm_m3_Hwi_Module_State_0_excActive__A                  
200034e4  ti_sysbios_family_arm_m3_Hwi_Module_State_0_excContext__A                 
200034e8  ti_sysbios_family_arm_m3_Hwi_Module_State_0_excStack__A                   
00000506  ti_sysbios_family_arm_m3_Hwi_Module__id__C                                
20003440  ti_sysbios_family_arm_m3_Hwi_Module__root__V                              
1001bb89  ti_sysbios_family_arm_m3_Hwi_Module__startupDone__S                       
20000144  ti_sysbios_family_arm_m3_Hwi_Module__state__V                             
1001b1c1  ti_sysbios_family_arm_m3_Hwi_Module_startup__E                            
00000490  ti_sysbios_family_arm_m3_Hwi_NUM_INTERRUPTS__C                            
000002d0  ti_sysbios_family_arm_m3_Hwi_Object__DESC__C                              
00000170  ti_sysbios_family_arm_m3_Hwi_Object__PARAMS__C                            
00000494  ti_sysbios_family_arm_m3_Hwi_Object__count__C                             
1001aab1  ti_sysbios_family_arm_m3_Hwi_Object__create__S                            
1001bba9  ti_sysbios_family_arm_m3_Hwi_Object__delete__S                            
1001be69  ti_sysbios_family_arm_m3_Hwi_Object__destruct__S                          
1001b7c1  ti_sysbios_family_arm_m3_Hwi_Object__get__S                               
00000498  ti_sysbios_family_arm_m3_Hwi_Object__table__C                             
200030ec  ti_sysbios_family_arm_m3_Hwi_Object__table__V                             
1001c13d  ti_sysbios_family_arm_m3_Hwi_Params__init__S                              
0000049c  ti_sysbios_family_arm_m3_Hwi_ccr__C                                       
1001af29  ti_sysbios_family_arm_m3_Hwi_construct                                    
1001ab15  ti_sysbios_family_arm_m3_Hwi_create                                       
1001c25d  ti_sysbios_family_arm_m3_Hwi_delete                                       
1001c261  ti_sysbios_family_arm_m3_Hwi_destruct                                     
1001c149  ti_sysbios_family_arm_m3_Hwi_disableFxn__E                                
1001b299  ti_sysbios_family_arm_m3_Hwi_disableInterrupt__E                          
0001f2d0  ti_sysbios_family_arm_m3_Hwi_disablePriority__C                           
1001aa49  ti_sysbios_family_arm_m3_Hwi_dispatchC__I                                 
200026a0  ti_sysbios_family_arm_m3_Hwi_dispatchTable                                
1001c89d  ti_sysbios_family_arm_m3_Hwi_dispatch__I                                  
1001c1fb  ti_sysbios_family_arm_m3_Hwi_doSwiRestore__I                              
1001c213  ti_sysbios_family_arm_m3_Hwi_doTaskRestore__I                             
1001c155  ti_sysbios_family_arm_m3_Hwi_enableFxn__E                                 
1001b2dd  ti_sysbios_family_arm_m3_Hwi_enableInterrupt__E                           
1001ca01  ti_sysbios_family_arm_m3_Hwi_excHandlerAsm__I                             
000004a0  ti_sysbios_family_arm_m3_Hwi_excHandlerFunc__C                            
1001bbc9  ti_sysbios_family_arm_m3_Hwi_excHandler__I                                
1001b465  ti_sysbios_family_arm_m3_Hwi_getStackInfo__E                              
1001a699  ti_sysbios_family_arm_m3_Hwi_initNVIC__E                                  
1001c9b9  ti_sysbios_family_arm_m3_Hwi_initStacks__E                                
000004a4  ti_sysbios_family_arm_m3_Hwi_nullIsrFunc__C                               
000004a8  ti_sysbios_family_arm_m3_Hwi_numSparseInterrupts__C                       
e000e000  ti_sysbios_family_arm_m3_Hwi_nvic                                         
1001ca3f  ti_sysbios_family_arm_m3_Hwi_pendSV__I                                    
1001c065  ti_sysbios_family_arm_m3_Hwi_plug__E                                      
1001a319  ti_sysbios_family_arm_m3_Hwi_postInit__I                                  
000004ac  ti_sysbios_family_arm_m3_Hwi_priGroup__C                                  
20000000  ti_sysbios_family_arm_m3_Hwi_ramVectors                                   
00000000  ti_sysbios_family_arm_m3_Hwi_resetVectors                                 
1001c219  ti_sysbios_family_arm_m3_Hwi_restoreFxn__E                                
1001ca57  ti_sysbios_family_arm_m3_Hwi_return                                       
1001be85  ti_sysbios_family_arm_m3_Hwi_setPriority__E                               
1001c203  ti_sysbios_family_arm_m3_Hwi_startup__E                                   
1001c00d  ti_sysbios_family_arm_m3_Hwi_switchFromBootStack__E                       
1001c265  ti_sysbios_family_arm_m3_TaskSupport_Module__startupDone__S               
1001c96d  ti_sysbios_family_arm_m3_TaskSupport_buildTaskStack                       
1001c161  ti_sysbios_family_arm_m3_TaskSupport_getStackAlignment__E                 
1001ca59  ti_sysbios_family_arm_m3_TaskSupport_glue                                 
000004b0  ti_sysbios_family_arm_m3_TaskSupport_stackAlignment__C                    
1001b49d  ti_sysbios_family_arm_m3_TaskSupport_start__E                             
1001ca69  ti_sysbios_family_arm_m3_TaskSupport_swap__E                              
1001ca21  ti_sysbios_family_xxx_Hwi_switchAndRunFunc                                
1001bbe9  ti_sysbios_gates_GateHwi_Handle__label__S                                 
1001b463  ti_sysbios_gates_GateHwi_Instance_init__E                                 
0000021c  ti_sysbios_gates_GateHwi_Module__FXNS__C                                  
00000508  ti_sysbios_gates_GateHwi_Module__id__C                                    
20003448  ti_sysbios_gates_GateHwi_Module__root__V                                  
000002f0  ti_sysbios_gates_GateHwi_Object__DESC__C                                  
00000430  ti_sysbios_gates_GateHwi_Object__PARAMS__C                                
1001ba95  ti_sysbios_gates_GateHwi_Object__create__S                                
1001bc09  ti_sysbios_gates_GateHwi_Object__delete__S                                
1001c16d  ti_sysbios_gates_GateHwi_enter__E                                         
1001c21f  ti_sysbios_gates_GateHwi_leave__E                                         
1001c269  ti_sysbios_gates_GateHwi_query__E                                         
1001bc29  ti_sysbios_gates_GateMutex_Handle__label__S                               
000005cc  ti_sysbios_gates_GateMutex_Instance_State_sem__O                          
1001c075  ti_sysbios_gates_GateMutex_Instance_finalize__E                           
1001bea1  ti_sysbios_gates_GateMutex_Instance_init__E                               
00000240  ti_sysbios_gates_GateMutex_Module__FXNS__C                                
0000050a  ti_sysbios_gates_GateMutex_Module__id__C                                  
20003450  ti_sysbios_gates_GateMutex_Module__root__V                                
00000310  ti_sysbios_gates_GateMutex_Object__DESC__C                                
00000448  ti_sysbios_gates_GateMutex_Object__PARAMS__C                              
1001b649  ti_sysbios_gates_GateMutex_Object__create__S                              
1001bab9  ti_sysbios_gates_GateMutex_Object__delete__S                              
1001bc49  ti_sysbios_gates_GateMutex_Object__destruct__S                            
20003080  ti_sysbios_gates_GateMutex_Object__table__V                               
1001c179  ti_sysbios_gates_GateMutex_Params__init__S                                
1001b7ed  ti_sysbios_gates_GateMutex_construct                                      
1001b679  ti_sysbios_gates_GateMutex_create                                         
1001c26d  ti_sysbios_gates_GateMutex_delete                                         
1001c271  ti_sysbios_gates_GateMutex_destruct                                       
1001b6a9  ti_sysbios_gates_GateMutex_enter__E                                       
1001bf9d  ti_sysbios_gates_GateMutex_leave__E                                       
1001c275  ti_sysbios_gates_GateMutex_query__E                                       
1001c279  ti_sysbios_hal_Hwi_HwiProxy_Module__startupDone__S                        
UNDEFED   ti_sysbios_hal_Hwi_HwiProxy_Module__startupDone__S__mangled__             
1001c085  ti_sysbios_hal_Hwi_HwiProxy_Object__create__S                             
1001bba9  ti_sysbios_hal_Hwi_HwiProxy_Object__delete__S                             
UNDEFED   ti_sysbios_hal_Hwi_HwiProxy_Object__delete__S__mangled__                  
1001c13d  ti_sysbios_hal_Hwi_HwiProxy_Params__init__S                               
UNDEFED   ti_sysbios_hal_Hwi_HwiProxy_Params__init__S__mangled__                    
1001be49  ti_sysbios_hal_Hwi_HwiProxy_create                                        
1001c27d  ti_sysbios_hal_Hwi_HwiProxy_delete                                        
1001c281  ti_sysbios_hal_Hwi_HwiProxy_disableInterrupt__E                           
UNDEFED   ti_sysbios_hal_Hwi_HwiProxy_disableInterrupt__E__mangled__                
1001c285  ti_sysbios_hal_Hwi_HwiProxy_enableInterrupt__E                            
UNDEFED   ti_sysbios_hal_Hwi_HwiProxy_enableInterrupt__E__mangled__                 
1001c289  ti_sysbios_hal_Hwi_HwiProxy_getStackInfo__E                               
UNDEFED   ti_sysbios_hal_Hwi_HwiProxy_getStackInfo__E__mangled__                    
1001c28d  ti_sysbios_hal_Hwi_HwiProxy_startup__E                                    
UNDEFED   ti_sysbios_hal_Hwi_HwiProxy_startup__E__mangled__                         
1001c291  ti_sysbios_hal_Hwi_HwiProxy_switchFromBootStack__E                        
UNDEFED   ti_sysbios_hal_Hwi_HwiProxy_switchFromBootStack__E__mangled__             
1001c1f1  ti_sysbios_hal_Hwi_Instance_finalize__E                                   
1001b9f9  ti_sysbios_hal_Hwi_Instance_init__E                                       
20003458  ti_sysbios_hal_Hwi_Module__root__V                                        
1001c021  ti_sysbios_hal_Hwi_Module_startup__E                                      
00000330  ti_sysbios_hal_Hwi_Object__DESC__C                                        
000001a0  ti_sysbios_hal_Hwi_Object__PARAMS__C                                      
1001bc69  ti_sysbios_hal_Hwi_Object__delete__S                                      
0000c3d1  ti_sysbios_hal_Hwi_Params__init__S                                        
1001ab79  ti_sysbios_hal_Hwi_create                                                 
1001c295  ti_sysbios_hal_Hwi_delete                                                 
1001c281  ti_sysbios_hal_Hwi_disableInterrupt__E                                    
UNDEFED   ti_sysbios_hal_Hwi_disableInterrupt__E__mangled__                         
1001c285  ti_sysbios_hal_Hwi_enableInterrupt__E                                     
UNDEFED   ti_sysbios_hal_Hwi_enableInterrupt__E__mangled__                          
1001c289  ti_sysbios_hal_Hwi_getStackInfo__E                                        
UNDEFED   ti_sysbios_hal_Hwi_getStackInfo__E__mangled__                             
1001b819  ti_sysbios_hal_Hwi_initStack                                              
1001c28d  ti_sysbios_hal_Hwi_startup__E                                             
UNDEFED   ti_sysbios_hal_Hwi_startup__E__mangled__                                  
1001c299  ti_sysbios_hal_Hwi_switchFromBootStack__E                                 
UNDEFED   ti_sysbios_hal_Hwi_switchFromBootStack__E__mangled__                      
000004b4  ti_sysbios_heaps_HeapMem_E_memory__C                                      
1001bc89  ti_sysbios_heaps_HeapMem_Handle__label__S                                 
200010d8  ti_sysbios_heaps_HeapMem_Instance_State_0_buf__A                          
1001b4d5  ti_sysbios_heaps_HeapMem_Instance_init__E                                 
1001bc29  ti_sysbios_heaps_HeapMem_Module_GateProxy_Handle__label__S                
UNDEFED   ti_sysbios_heaps_HeapMem_Module_GateProxy_Handle__label__S__mangled__     
1001bab9  ti_sysbios_heaps_HeapMem_Module_GateProxy_Object__delete__S               
UNDEFED   ti_sysbios_heaps_HeapMem_Module_GateProxy_Object__delete__S__mangled__    
1001c179  ti_sysbios_heaps_HeapMem_Module_GateProxy_Params__init__S                 
UNDEFED   ti_sysbios_heaps_HeapMem_Module_GateProxy_Params__init__S__mangled__      
1001c29d  ti_sysbios_heaps_HeapMem_Module_GateProxy_enter__E                        
1001c2a1  ti_sysbios_heaps_HeapMem_Module_GateProxy_leave__E                        
1001c275  ti_sysbios_heaps_HeapMem_Module_GateProxy_query__E                        
UNDEFED   ti_sysbios_heaps_HeapMem_Module_GateProxy_query__E__mangled__             
000001cc  ti_sysbios_heaps_HeapMem_Module__FXNS__C                                  
000004b8  ti_sysbios_heaps_HeapMem_Module__gateObj__C                               
0000050c  ti_sysbios_heaps_HeapMem_Module__id__C                                    
20003460  ti_sysbios_heaps_HeapMem_Module__root__V                                  
00000350  ti_sysbios_heaps_HeapMem_Object__DESC__C                                  
00000264  ti_sysbios_heaps_HeapMem_Object__PARAMS__C                                
000004bc  ti_sysbios_heaps_HeapMem_Object__count__C                                 
1001b845  ti_sysbios_heaps_HeapMem_Object__create__S                                
1001bca9  ti_sysbios_heaps_HeapMem_Object__delete__S                                
1001b871  ti_sysbios_heaps_HeapMem_Object__get__S                                   
000004c0  ti_sysbios_heaps_HeapMem_Object__table__C                                 
20003284  ti_sysbios_heaps_HeapMem_Object__table__V                                 
1001a199  ti_sysbios_heaps_HeapMem_alloc__E                                         
1001a795  ti_sysbios_heaps_HeapMem_free__E                                          
1001b209  ti_sysbios_heaps_HeapMem_getStats__E                                      
1001b545  ti_sysbios_heaps_HeapMem_init__I                                          
1001c2a5  ti_sysbios_heaps_HeapMem_isBlocking__E                                    
000004c4  ti_sysbios_heaps_HeapMem_reqAlign__C                                      
1001c105  ti_sysbios_heaps_HeapMem_restore__E                                       
1001bfcd  ti_sysbios_knl_Clock_Instance_finalize__E                                 
1001b50d  ti_sysbios_knl_Clock_Instance_init__E                                     
000005d0  ti_sysbios_knl_Clock_Module_State_clockQ__O                               
20003468  ti_sysbios_knl_Clock_Module__root__V                                      
20000178  ti_sysbios_knl_Clock_Module__state__V                                     
1001bcc9  ti_sysbios_knl_Clock_Module_startup__E                                    
00000370  ti_sysbios_knl_Clock_Object__DESC__C                                      
00000288  ti_sysbios_knl_Clock_Object__PARAMS__C                                    
1001badd  ti_sysbios_knl_Clock_Object__delete__S                                    
1001bce9  ti_sysbios_knl_Clock_Object__destruct__S                                  
1001c185  ti_sysbios_knl_Clock_Params__init__S                                      
1001c2a9  ti_sysbios_knl_Clock_TimerProxy_Module__startupDone__S                    
UNDEFED   ti_sysbios_knl_Clock_TimerProxy_Module__startupDone__S__mangled__         
1001c095  ti_sysbios_knl_Clock_TimerProxy_getCurrentTick__E                         
1001c2ad  ti_sysbios_knl_Clock_TimerProxy_getExpiredTicks__E                        
1001c0a5  ti_sysbios_knl_Clock_TimerProxy_getMaxTicks__E                            
1001c2b1  ti_sysbios_knl_Clock_TimerProxy_getPeriod__E                              
1001c0b5  ti_sysbios_knl_Clock_TimerProxy_setNextTick__E                            
1001b795  ti_sysbios_knl_Clock_TimerProxy_startup__E                                
UNDEFED   ti_sysbios_knl_Clock_TimerProxy_startup__E__mangled__                     
1001ba21  ti_sysbios_knl_Clock_addI__E                                              
1001b579  ti_sysbios_knl_Clock_construct                                            
1001b3ed  ti_sysbios_knl_Clock_create                                               
1001c2b5  ti_sysbios_knl_Clock_delete                                               
1001c2b9  ti_sysbios_knl_Clock_destruct                                             
0000c135  ti_sysbios_knl_Clock_doTick__I                                            
1001b6d9  ti_sysbios_knl_Clock_getTicks__E                                          
1001c191  ti_sysbios_knl_Clock_getTimerHandle__E                                    
0000c4ed  ti_sysbios_knl_Clock_isActive__E                                          
1001be67  ti_sysbios_knl_Clock_logTick__E                                           
1001c2bd  ti_sysbios_knl_Clock_removeI__E                                           
1001bebd  ti_sysbios_knl_Clock_scheduleNextTick__E                                  
000004c8  ti_sysbios_knl_Clock_serviceMargin__C                                     
1001c2c1  ti_sysbios_knl_Clock_setTimeout__E                                        
1001a719  ti_sysbios_knl_Clock_startI__E                                            
1001bfe3  ti_sysbios_knl_Clock_start__E                                             
1001c225  ti_sysbios_knl_Clock_stop__E                                              
00000510  ti_sysbios_knl_Clock_tickMode__C                                          
0001f2d4  ti_sysbios_knl_Clock_tickPeriod__C                                        
1001a80d  ti_sysbios_knl_Clock_walkQueueDynamic__E                                  
000081ad  ti_sysbios_knl_Clock_workFuncDynamic__E                                   
1001a885  ti_sysbios_knl_Clock_workFunc__E                                          
0001f294  ti_sysbios_knl_Idle_funcList__A                                           
00000478  ti_sysbios_knl_Idle_funcList__C                                           
1001c20b  ti_sysbios_knl_Idle_loop__E                                               
1001bd09  ti_sysbios_knl_Idle_run__E                                                
000005d4  ti_sysbios_knl_Mailbox_Instance_State_dataQue__O                          
000005d8  ti_sysbios_knl_Mailbox_Instance_State_dataSem__O                          
000005dc  ti_sysbios_knl_Mailbox_Instance_State_freeQue__O                          
000005e0  ti_sysbios_knl_Mailbox_Instance_State_freeSem__O                          
1001a9dd  ti_sysbios_knl_Mailbox_Instance_finalize__E                               
1001a001  ti_sysbios_knl_Mailbox_Instance_init__E                                   
20003470  ti_sysbios_knl_Mailbox_Module__root__V                                    
1001b251  ti_sysbios_knl_Mailbox_Module_startup__E                                  
00000390  ti_sysbios_knl_Mailbox_Object__DESC__C                                    
0000013c  ti_sysbios_knl_Mailbox_Object__PARAMS__C                                  
000004cc  ti_sysbios_knl_Mailbox_Object__count__C                                   
1001bd29  ti_sysbios_knl_Mailbox_Object__delete__S                                  
1001bed9  ti_sysbios_knl_Mailbox_Object__destruct__S                                
1001b89d  ti_sysbios_knl_Mailbox_Object__get__S                                     
000004d0  ti_sysbios_knl_Mailbox_Object__table__C                                   
1001c19d  ti_sysbios_knl_Mailbox_Params__init__S                                    
1001af81  ti_sysbios_knl_Mailbox_construct                                          
1001abdd  ti_sysbios_knl_Mailbox_create                                             
1001c2c5  ti_sysbios_knl_Mailbox_delete                                             
1001c2c9  ti_sysbios_knl_Mailbox_destruct                                           
1001a8fd  ti_sysbios_knl_Mailbox_pend__E                                            
1001b8c9  ti_sysbios_knl_Mailbox_postInit__I                                        
1001a591  ti_sysbios_knl_Mailbox_post__E                                            
1001c22b  ti_sysbios_knl_Queue_Instance_init__E                                     
20003478  ti_sysbios_knl_Queue_Module__root__V                                      
000003b0  ti_sysbios_knl_Queue_Object__DESC__C                                      
00000460  ti_sysbios_knl_Queue_Object__PARAMS__C                                    
000004d4  ti_sysbios_knl_Queue_Object__count__C                                     
1001bd49  ti_sysbios_knl_Queue_Object__delete__S                                    
1001bef5  ti_sysbios_knl_Queue_Object__destruct__S                                  
1001bd69  ti_sysbios_knl_Queue_Object__get__S                                       
000004d8  ti_sysbios_knl_Queue_Object__table__C                                     
1001b8f5  ti_sysbios_knl_Queue_construct                                            
1001b921  ti_sysbios_knl_Queue_create                                               
1001c2cd  ti_sysbios_knl_Queue_delete                                               
1001c1a9  ti_sysbios_knl_Queue_dequeue__E                                           
1001c2d1  ti_sysbios_knl_Queue_destruct                                             
1001c231  ti_sysbios_knl_Queue_elemClear__E                                         
1001c113  ti_sysbios_knl_Queue_empty__E                                             
1001c1b5  ti_sysbios_knl_Queue_enqueue__E                                           
1001bf11  ti_sysbios_knl_Queue_get__E                                               
1001c2d5  ti_sysbios_knl_Queue_head__E                                              
1001c2d9  ti_sysbios_knl_Queue_next__E                                              
1001bf2d  ti_sysbios_knl_Queue_put__E                                               
1001c121  ti_sysbios_knl_Queue_remove__E                                            
000005e4  ti_sysbios_knl_Semaphore_Instance_State_pendQ__O                          
1001c0c5  ti_sysbios_knl_Semaphore_Instance_finalize__E                             
1001bb01  ti_sysbios_knl_Semaphore_Instance_init__E                                 
20003480  ti_sysbios_knl_Semaphore_Module__root__V                                  
000003d0  ti_sysbios_knl_Semaphore_Object__DESC__C                                  
000002ac  ti_sysbios_knl_Semaphore_Object__PARAMS__C                                
1001bb25  ti_sysbios_knl_Semaphore_Object__delete__S                                
1001bd89  ti_sysbios_knl_Semaphore_Object__destruct__S                              
1001c1c1  ti_sysbios_knl_Semaphore_Params__init__S                                  
1001b709  ti_sysbios_knl_Semaphore_construct                                        
1001b5ad  ti_sysbios_knl_Semaphore_create                                           
1001c2dd  ti_sysbios_knl_Semaphore_delete                                           
1001c2e1  ti_sysbios_knl_Semaphore_destruct                                         
1001b94d  ti_sysbios_knl_Semaphore_pendTimeout__I                                   
1001a0cd  ti_sysbios_knl_Semaphore_pend__E                                          
1001ac41  ti_sysbios_knl_Semaphore_post__E                                          
1001bf9b  ti_sysbios_knl_Swi_Instance_finalize__E                                   
1001aca5  ti_sysbios_knl_Swi_Instance_init__E                                       
2000311c  ti_sysbios_knl_Swi_Module_State_0_readyQ__A                               
20003488  ti_sysbios_knl_Swi_Module__root__V                                        
200001c8  ti_sysbios_knl_Swi_Module__state__V                                       
1001c237  ti_sysbios_knl_Swi_Module_startup__E                                      
000003f0  ti_sysbios_knl_Swi_Object__DESC__C                                        
000001f4  ti_sysbios_knl_Swi_Object__PARAMS__C                                      
000004dc  ti_sysbios_knl_Swi_Object__count__C                                       
1001bda9  ti_sysbios_knl_Swi_Object__delete__S                                      
1001bf49  ti_sysbios_knl_Swi_Object__destruct__S                                    
1001b979  ti_sysbios_knl_Swi_Object__get__S                                         
000004e0  ti_sysbios_knl_Swi_Object__table__C                                       
2000314c  ti_sysbios_knl_Swi_Object__table__V                                       
1001c1cd  ti_sysbios_knl_Swi_Params__init__S                                        
1001b085  ti_sysbios_knl_Swi_construct                                              
1001ad05  ti_sysbios_knl_Swi_create                                                 
1001c2e5  ti_sysbios_knl_Swi_delete                                                 
1001c2e9  ti_sysbios_knl_Swi_destruct                                               
1001c0d5  ti_sysbios_knl_Swi_disable__E                                             
1001c0e5  ti_sysbios_knl_Swi_enabled__E                                             
000004e4  ti_sysbios_knl_Swi_numPriorities__C                                       
1001c2ed  ti_sysbios_knl_Swi_postInit__I                                            
1001b321  ti_sysbios_knl_Swi_post__E                                                
1001ad61  ti_sysbios_knl_Swi_restoreHwi__E                                          
1001b5e1  ti_sysbios_knl_Swi_restore__E                                             
1001b0d5  ti_sysbios_knl_Swi_runLoop__I                                             
1001afd9  ti_sysbios_knl_Swi_run__I                                                 
1001b031  ti_sysbios_knl_Swi_schedule__I                                            
1001c23d  ti_sysbios_knl_Swi_startup__E                                             
20002180  ti_sysbios_knl_Task_Instance_State_0_stack__A                             
1001a4fd  ti_sysbios_knl_Task_Instance_finalize__E                                  
1001a25d  ti_sysbios_knl_Task_Instance_init__E                                      
200034ec  ti_sysbios_knl_Task_Module_State_0_idleTask__A                            
2000317c  ti_sysbios_knl_Task_Module_State_0_readyQ__A                              
000005e8  ti_sysbios_knl_Task_Module_State_inactiveQ__O                             
20003490  ti_sysbios_knl_Task_Module__root__V                                       
20000100  ti_sysbios_knl_Task_Module__state__V                                      
1001adbd  ti_sysbios_knl_Task_Module_startup__E                                     
00000410  ti_sysbios_knl_Task_Object__DESC__C                                       
00000100  ti_sysbios_knl_Task_Object__PARAMS__C                                     
000004e8  ti_sysbios_knl_Task_Object__count__C                                      
1001bdc9  ti_sysbios_knl_Task_Object__delete__S                                     
1001bf65  ti_sysbios_knl_Task_Object__destruct__S                                   
1001bde9  ti_sysbios_knl_Task_Object__get__S                                        
000004ec  ti_sysbios_knl_Task_Object__table__C                                      
20002fe8  ti_sysbios_knl_Task_Object__table__V                                      
1001c1d9  ti_sysbios_knl_Task_Params__init__S                                       
1001c2f1  ti_sysbios_knl_Task_SupportProxy_Module__startupDone__S                   
UNDEFED   ti_sysbios_knl_Task_SupportProxy_Module__startupDone__S__mangled__        
1001c2f5  ti_sysbios_knl_Task_SupportProxy_getStackAlignment__E                     
UNDEFED   ti_sysbios_knl_Task_SupportProxy_getStackAlignment__E__mangled__          
1001c2f9  ti_sysbios_knl_Task_SupportProxy_start__E                                 
UNDEFED   ti_sysbios_knl_Task_SupportProxy_start__E__mangled__                      
1001c2fd  ti_sysbios_knl_Task_SupportProxy_swap__E                                  
UNDEFED   ti_sysbios_knl_Task_SupportProxy_swap__E__mangled__                       
000004f0  ti_sysbios_knl_Task_allBlockedFunc__C                                     
1001b365  ti_sysbios_knl_Task_allBlockedFunction__I                                 
1001b615  ti_sysbios_knl_Task_blockI__E                                             
1001b125  ti_sysbios_knl_Task_construct                                             
1001ae19  ti_sysbios_knl_Task_create                                                
000004f4  ti_sysbios_knl_Task_defaultStackHeap__C                                   
000004f8  ti_sysbios_knl_Task_defaultStackSize__C                                   
1001c301  ti_sysbios_knl_Task_delete                                                
1001c305  ti_sysbios_knl_Task_destruct                                              
1001c0f5  ti_sysbios_knl_Task_disable__E                                            
1001c243  ti_sysbios_knl_Task_enable__E                                             
1001be09  ti_sysbios_knl_Task_enter__I                                              
1001b429  ti_sysbios_knl_Task_exit__E                                               
0000050e  ti_sysbios_knl_Task_initStackFlag__C                                      
000004fc  ti_sysbios_knl_Task_numConstructedTasks__C                                
1001a615  ti_sysbios_knl_Task_postInit__I                                           
1001b739  ti_sysbios_knl_Task_processVitalTaskFlag__I                               
1001be29  ti_sysbios_knl_Task_restoreHwi__E                                         
1001ba49  ti_sysbios_knl_Task_restore__E                                            
1001b175  ti_sysbios_knl_Task_schedule__I                                           
1001c1e5  ti_sysbios_knl_Task_self__E                                               
1001bf81  ti_sysbios_knl_Task_sleepTimeout__I                                       
1001a96d  ti_sysbios_knl_Task_sleep__E                                              
1001ae75  ti_sysbios_knl_Task_startCore__E                                          
1001c309  ti_sysbios_knl_Task_startup__E                                            
1001ca71  ti_sysbios_knl_Task_swapReturn                                            
1001b9a5  ti_sysbios_knl_Task_unblockI__E                                           
1001bfb5  ti_sysbios_knl_Task_unblock__E                                            
1001b3a9  ti_sysbios_knl_Task_yield__E                                              
00000590  ti_sysbios_rom_ROM_AONRTCChannelEnable                                    
00000594  ti_sysbios_rom_ROM_AONRTCCompareValueSet                                  
00000598  ti_sysbios_rom_ROM_AONRTCCurrentCompareValueGet                           
0000059c  ti_sysbios_rom_ROM_AONRTCEventClear                                       
000005a0  ti_sysbios_rom_ROM_ti_sysbios_family_arm_cc26xx_Timer_getCount64__E       
000005a4  ti_sysbios_rom_ROM_ti_sysbios_family_arm_cc26xx_Timer_getCurrentTick__E   
000005a8  ti_sysbios_rom_ROM_ti_sysbios_family_arm_cc26xx_Timer_getMaxTicks__E      
000005ac  ti_sysbios_rom_ROM_ti_sysbios_family_arm_cc26xx_Timer_initDevice__I       
000005b0  ti_sysbios_rom_ROM_ti_sysbios_family_arm_cc26xx_Timer_setNextTick__E      
000005b4  ti_sysbios_rom_ROM_ti_sysbios_family_arm_cc26xx_Timer_setThreshold__I     
000005b8  ti_sysbios_rom_ROM_ti_sysbios_family_arm_cc26xx_Timer_start__E            
000005bc  ti_sysbios_rom_ROM_ti_sysbios_family_arm_cc26xx_TimestampProvider_get32__E
000005c0  ti_sysbios_rom_ROM_xdc_runtime_Startup_getState__I                        
000005c4  ti_sysbios_rom_ROM_xdc_runtime_System_SupportProxy_abort__E               
000005c8  ti_sysbios_rom_ROM_xdc_runtime_System_SupportProxy_exit__E                
000093a3  ti_sysbios_rom_cortexm_cc26xx_CC26xx_badRomRevision__E                    
0000c011  ti_sysbios_rom_cortexm_cc26xx_CC26xx_checkRevision__E                     
1001ca9b  ti_sysbios_rom_cortexm_cc26xx_CC26xx_getRevision__E                       
20002b94  transaction                                                               
00008049  trimDevice                                                                
0001f028  txPowerTable                                                              
0001f2a4  txPwrTbl                                                                  
0001f218  uartCC26XXHWAttrs                                                         
200025d0  uartCC26XXObjects                                                         
20001758  uartLog_evBuf                                                             
20003422  uartLog_evBufIsEmpty                                                      
20003424  uartLog_evtNum                                                            
00008c3d  uartLog_flush                                                             
20003421  uartLog_head                                                              
20002768  uartLog_outBuf                                                            
00008aa1  uartLog_outputFxn                                                         
20003420  uartLog_tail                                                              
0001f29c  udmaHWAttrs                                                               
20002ad4  udmaObjects                                                               
20003250  user0Cfg                                                                  
00000524  xdc_runtime_Assert_E_assertFailed__C                                      
1001c5a9  xdc_runtime_Assert_raise__I                                               
1001c6ed  xdc_runtime_Core_assignLabel__I                                           
1001c5f1  xdc_runtime_Core_assignParams__I                                          
1001c639  xdc_runtime_Core_constructObject__I                                       
1001c405  xdc_runtime_Core_createObject__I                                          
1001c4f9  xdc_runtime_Core_deleteObject__I                                          
1001c7a1  xdc_runtime_Core_destructObject__I                                        
00000528  xdc_runtime_Error_E_memory__C                                             
1001c7b9  xdc_runtime_Error_check__E                                                
1001c841  xdc_runtime_Error_init__E                                                 
0000052c  xdc_runtime_Error_policyFxn__C                                            
1001c487  xdc_runtime_Error_policySpin__E                                           
0000058c  xdc_runtime_Error_policy__C                                               
1001c769  xdc_runtime_Error_raiseX__E                                               
1001c885  xdc_runtime_Gate_enterSystem__E                                           
1001c879  xdc_runtime_Gate_leaveSystem__E                                           
00000530  xdc_runtime_IGateProvider_Interface__BASE__C                              
00000534  xdc_runtime_IHeap_Interface__BASE__C                                      
0001f2d8  xdc_runtime_ILogger_Interface__BASE__C                                    
00000538  xdc_runtime_IModule_Interface__BASE__C                                    
0001f2dc  xdc_runtime_Log_L_error__C                                                
0001f2e0  xdc_runtime_Log_L_info__C                                                 
0001f2e4  xdc_runtime_Log_L_warning__C                                              
0000bde9  xdc_runtime_LoggerCallback_Instance_init__E                               
0000df40  xdc_runtime_LoggerCallback_Module__FXNS__C                                
200034b8  xdc_runtime_LoggerCallback_Module__root__V                                
0000a331  xdc_runtime_LoggerCallback_Module_startup__E                              
0001f0d8  xdc_runtime_LoggerCallback_Object__DESC__C                                
0001f0f8  xdc_runtime_LoggerCallback_Object__PARAMS__C                              
0001f2e8  xdc_runtime_LoggerCallback_Object__count__C                               
0000b37d  xdc_runtime_LoggerCallback_Object__create__S                              
0000c1fd  xdc_runtime_LoggerCallback_Object__get__S                                 
2000338c  xdc_runtime_LoggerCallback_Object__table__V                               
0001f2ec  xdc_runtime_LoggerCallback_createInstFxn__C                               
0000c4f1  xdc_runtime_LoggerCallback_defaultCreate                                  
0000c423  xdc_runtime_LoggerCallback_disable__E                                     
0000c42d  xdc_runtime_LoggerCallback_enable__E                                      
0001f2f0  xdc_runtime_LoggerCallback_outputFxn__C                                   
0000b8a1  xdc_runtime_LoggerCallback_write0__E                                      
0000b8c9  xdc_runtime_LoggerCallback_write1__E                                      
0000b3b5  xdc_runtime_LoggerCallback_write2__E                                      
0000ad95  xdc_runtime_LoggerCallback_write4__E                                      
0000a105  xdc_runtime_LoggerCallback_write8__E                                      
UNDEFED   xdc_runtime_Main_Module_GateProxy_Handle__label__S                        
UNDEFED   xdc_runtime_Main_Module_GateProxy_Object__delete__S                       
UNDEFED   xdc_runtime_Main_Module_GateProxy_query__E                                
0000053c  xdc_runtime_Main_Module__diagsEnabled__C                                  
00000540  xdc_runtime_Main_Module__diagsIncluded__C                                 
00000544  xdc_runtime_Main_Module__diagsMask__C                                     
00000584  xdc_runtime_Main_Module__id__C                                            
0001f326  xdc_runtime_Main_Module__loggerDefined__C                                 
0001f2f4  xdc_runtime_Main_Module__loggerFxn4__C                                    
0001f2f8  xdc_runtime_Main_Module__loggerFxn8__C                                    
0001f2fc  xdc_runtime_Main_Module__loggerObj__C                                     
1001bc89  xdc_runtime_Memory_HeapProxy_Handle__label__S                             
UNDEFED   xdc_runtime_Memory_HeapProxy_Handle__label__S__mangled__                  
1001bca9  xdc_runtime_Memory_HeapProxy_Object__delete__S                            
UNDEFED   xdc_runtime_Memory_HeapProxy_Object__delete__S__mangled__                 
1001c889  xdc_runtime_Memory_HeapProxy_alloc__E                                     
1001c88d  xdc_runtime_Memory_HeapProxy_free__E                                      
00000586  xdc_runtime_Memory_Module__id__C                                          
20000200  xdc_runtime_Memory_Module__state__V                                       
1001c489  xdc_runtime_Memory_alloc__E                                               
1001c84d  xdc_runtime_Memory_calloc__E                                              
00000548  xdc_runtime_Memory_defaultHeapInstance__C                                 
1001c801  xdc_runtime_Memory_free__E                                                
1001c859  xdc_runtime_Memory_getMaxDefaultTypeAlign__E                              
1001c785  xdc_runtime_Memory_valloc__E                                              
200034c0  xdc_runtime_Registry_Module__state__V                                     
200001f0  xdc_runtime_Startup_Module__state__V                                      
00000001  xdc_runtime_Startup__EXECFXN__C                                           
00000001  xdc_runtime_Startup__RESETFXN__C                                          
0000054c  xdc_runtime_Startup_execImpl__C                                           
1001c559  xdc_runtime_Startup_exec__E                                               
0000c151  xdc_runtime_Startup_exec__I                                               
0001f268  xdc_runtime_Startup_firstFxns__A                                          
00000514  xdc_runtime_Startup_firstFxns__C                                          
00009771  xdc_runtime_Startup_getState__I                                           
0000051c  xdc_runtime_Startup_lastFxns__C                                           
00000550  xdc_runtime_Startup_maxPasses__C                                          
0000c3e5  xdc_runtime_Startup_reset__I                                              
0001f12c  xdc_runtime_Startup_sfxnRts__A                                            
00000554  xdc_runtime_Startup_sfxnRts__C                                            
0000df74  xdc_runtime_Startup_sfxnTab__A                                            
00000558  xdc_runtime_Startup_sfxnTab__C                                            
0000055c  xdc_runtime_Startup_startModsFxn__C                                       
1001c30d  xdc_runtime_Startup_startMods__I                                          
00000560  xdc_runtime_SysCallback_abortFxn__C                                       
1001c811  xdc_runtime_SysCallback_abort__E                                          
00009983  xdc_runtime_SysCallback_defaultAbort                                      
00009eaf  xdc_runtime_SysCallback_defaultExit                                       
0000af0f  xdc_runtime_SysCallback_defaultPutch                                      
0000c4f5  xdc_runtime_SysCallback_defaultReady                                      
00000564  xdc_runtime_SysCallback_exitFxn__C                                        
1001c821  xdc_runtime_SysCallback_exit__E                                           
0001f300  xdc_runtime_SysCallback_putchFxn__C                                       
0000c20d  xdc_runtime_SysCallback_putch__E                                          
0001f304  xdc_runtime_SysCallback_readyFxn__C                                       
0000c21d  xdc_runtime_SysCallback_ready__E                                          
1001bbe9  xdc_runtime_System_Module_GateProxy_Handle__label__S                      
UNDEFED   xdc_runtime_System_Module_GateProxy_Handle__label__S__mangled__           
1001bc09  xdc_runtime_System_Module_GateProxy_Object__delete__S                     
UNDEFED   xdc_runtime_System_Module_GateProxy_Object__delete__S__mangled__          
1001c891  xdc_runtime_System_Module_GateProxy_enter__E                              
1001c895  xdc_runtime_System_Module_GateProxy_leave__E                              
1001c269  xdc_runtime_System_Module_GateProxy_query__E                              
UNDEFED   xdc_runtime_System_Module_GateProxy_query__E__mangled__                   
200001f8  xdc_runtime_System_Module__state__V                                       
1001c87f  xdc_runtime_System_Module_startup__E                                      
UNDEFED   xdc_runtime_System_SupportProxy_abort__E                                  
UNDEFED   xdc_runtime_System_SupportProxy_exit__E                                   
0000c20d  xdc_runtime_System_SupportProxy_putch__E                                  
0000c21d  xdc_runtime_System_SupportProxy_ready__E                                  
00000568  xdc_runtime_System_abortFxn__C                                            
1001c899  xdc_runtime_System_abortSpin__E                                           
00009bd5  xdc_runtime_System_abortStd__E                                            
1001c749  xdc_runtime_System_abort__E                                               
1001c681  xdc_runtime_System_atexit__E                                              
000010a1  xdc_runtime_System_doPrint__I                                             
0000056c  xdc_runtime_System_exitFxn__C                                             
1001c89b  xdc_runtime_System_exitSpin__E                                            
00009bdd  xdc_runtime_System_exitStd__E                                             
1001c7d1  xdc_runtime_System_exit__E                                                
0001f308  xdc_runtime_System_extendFxn__C                                           
00000570  xdc_runtime_System_maxAtexitHandlers__C                                   
00007159  xdc_runtime_System_printfExtend__I                                        
1001c6b9  xdc_runtime_System_processAtExit__E                                       
0000b8f1  xdc_runtime_System_snprintf__E                                            
00000588  xdc_runtime_Text_charCnt__C                                               
0000c630  xdc_runtime_Text_charTab__A                                               
00000574  xdc_runtime_Text_charTab__C                                               
1001c71d  xdc_runtime_Text_cordText__E                                              
0000058a  xdc_runtime_Text_isLoaded__C                                              
00000578  xdc_runtime_Text_nameEmpty__C                                             
0000057c  xdc_runtime_Text_nameStatic__C                                            
00000580  xdc_runtime_Text_nameUnknown__C                                           
0001f228  xdc_runtime_Text_nodeTab__A                                               
0001f30c  xdc_runtime_Text_nodeTab__C                                               
0000b0e5  xdc_runtime_Text_printVisFxn__I                                           
00006e6d  xdc_runtime_Text_putLab__E                                                
000060c1  xdc_runtime_Text_putSite__E                                               
0001f328  xdc_runtime_Text_registryModsLastId__C                                    
1001c7e9  xdc_runtime_Text_ropeText__E                                              
0001f32a  xdc_runtime_Text_unnamedModsLastId__C                                     
00009c79  xdc_runtime_Text_visitRope2__I                                            
0001f310  xdc_runtime_Text_visitRopeFxn__C                                          
0000c437  xdc_runtime_Text_visitRope__I                                             
00009fe1  xdc_runtime_Text_xprintf__I                                               
1001c831  xdc_runtime_Timestamp_SupportProxy_get32__E                               
0000bc9d  xdc_runtime_Timestamp_SupportProxy_get32__E__mangled__                    
1001b9d1  xdc_runtime_Timestamp_SupportProxy_get64__E                               
UNDEFED   xdc_runtime_Timestamp_SupportProxy_get64__E__mangled__                    
1001c12f  xdc_runtime_Timestamp_SupportProxy_getFreq__E                             
UNDEFED   xdc_runtime_Timestamp_SupportProxy_getFreq__E__mangled__                  
1001c831  xdc_runtime_Timestamp_get32__E                                            
UNDEFED   xdc_runtime_Timestamp_get32__E__mangled__                                 
1001b9d1  xdc_runtime_Timestamp_get64__E                                            
UNDEFED   xdc_runtime_Timestamp_get64__E__mangled__                                 
1001c12f  xdc_runtime_Timestamp_getFreq__E                                          
UNDEFED   xdc_runtime_Timestamp_getFreq__E__mangled__                               


GLOBAL SYMBOLS: SORTED BY Symbol Address 

address   name                                                                      
-------   ----                                                                      
00000000  __ASM__                                                                   
00000000  ti_sysbios_family_arm_m3_Hwi_resetVectors                                 
00000001  xdc_runtime_Startup__EXECFXN__C                                           
00000001  xdc_runtime_Startup__RESETFXN__C                                          
0000007e  __ISA__                                                                   
00000090  __PLAT__                                                                  
000000b7  __TARG__                                                                  
000000dc  __TRDR__                                                                  
000000f9  GAP_RegisterForMsgs                                                       
00000100  ti_sysbios_knl_Task_Object__PARAMS__C                                     
0000013c  ti_sysbios_knl_Mailbox_Object__PARAMS__C                                  
00000170  ti_sysbios_family_arm_m3_Hwi_Object__PARAMS__C                            
000001a0  ti_sysbios_hal_Hwi_Object__PARAMS__C                                      
000001cc  ti_sysbios_heaps_HeapMem_Module__FXNS__C                                  
000001f4  ti_sysbios_knl_Swi_Object__PARAMS__C                                      
0000021c  ti_sysbios_gates_GateHwi_Module__FXNS__C                                  
00000240  ti_sysbios_gates_GateMutex_Module__FXNS__C                                
00000264  ti_sysbios_heaps_HeapMem_Object__PARAMS__C                                
00000288  ti_sysbios_knl_Clock_Object__PARAMS__C                                    
000002ac  ti_sysbios_knl_Semaphore_Object__PARAMS__C                                
000002d0  ti_sysbios_family_arm_m3_Hwi_Object__DESC__C                              
000002f0  ti_sysbios_gates_GateHwi_Object__DESC__C                                  
00000310  ti_sysbios_gates_GateMutex_Object__DESC__C                                
00000330  ti_sysbios_hal_Hwi_Object__DESC__C                                        
00000350  ti_sysbios_heaps_HeapMem_Object__DESC__C                                  
00000370  ti_sysbios_knl_Clock_Object__DESC__C                                      
00000390  ti_sysbios_knl_Mailbox_Object__DESC__C                                    
000003b0  ti_sysbios_knl_Queue_Object__DESC__C                                      
000003d0  ti_sysbios_knl_Semaphore_Object__DESC__C                                  
000003f0  ti_sysbios_knl_Swi_Object__DESC__C                                        
00000400  __STACK_SIZE                                                              
00000410  ti_sysbios_knl_Task_Object__DESC__C                                       
00000430  ti_sysbios_gates_GateHwi_Object__PARAMS__C                                
00000448  ti_sysbios_gates_GateMutex_Object__PARAMS__C                              
00000460  ti_sysbios_knl_Queue_Object__PARAMS__C                                    
00000478  ti_sysbios_knl_Idle_funcList__C                                           
00000484  ti_sysbios_family_arm_cc26xx_Timer_startupNeeded__C                       
00000488  ti_sysbios_family_arm_m3_Hwi_E_alreadyDefined__C                          
0000048c  ti_sysbios_family_arm_m3_Hwi_E_hwiLimitExceeded__C                        
00000490  ti_sysbios_family_arm_m3_Hwi_NUM_INTERRUPTS__C                            
00000494  ti_sysbios_family_arm_m3_Hwi_Object__count__C                             
00000498  ti_sysbios_family_arm_m3_Hwi_Object__table__C                             
0000049c  ti_sysbios_family_arm_m3_Hwi_ccr__C                                       
000004a0  ti_sysbios_family_arm_m3_Hwi_excHandlerFunc__C                            
000004a4  ti_sysbios_family_arm_m3_Hwi_nullIsrFunc__C                               
000004a8  ti_sysbios_family_arm_m3_Hwi_numSparseInterrupts__C                       
000004ac  ti_sysbios_family_arm_m3_Hwi_priGroup__C                                  
000004b0  ti_sysbios_family_arm_m3_TaskSupport_stackAlignment__C                    
000004b4  ti_sysbios_heaps_HeapMem_E_memory__C                                      
000004b8  ti_sysbios_heaps_HeapMem_Module__gateObj__C                               
000004bc  ti_sysbios_heaps_HeapMem_Object__count__C                                 
000004c0  ti_sysbios_heaps_HeapMem_Object__table__C                                 
000004c4  ti_sysbios_heaps_HeapMem_reqAlign__C                                      
000004c8  ti_sysbios_knl_Clock_serviceMargin__C                                     
000004cc  ti_sysbios_knl_Mailbox_Object__count__C                                   
000004d0  ti_sysbios_knl_Mailbox_Object__table__C                                   
000004d4  ti_sysbios_knl_Queue_Object__count__C                                     
000004d8  ti_sysbios_knl_Queue_Object__table__C                                     
000004dc  ti_sysbios_knl_Swi_Object__count__C                                       
000004e0  ti_sysbios_knl_Swi_Object__table__C                                       
000004e4  ti_sysbios_knl_Swi_numPriorities__C                                       
000004e8  ti_sysbios_knl_Task_Object__count__C                                      
000004ec  ti_sysbios_knl_Task_Object__table__C                                      
000004f0  ti_sysbios_knl_Task_allBlockedFunc__C                                     
000004f4  ti_sysbios_knl_Task_defaultStackHeap__C                                   
000004f8  ti_sysbios_knl_Task_defaultStackSize__C                                   
000004fc  ti_sysbios_knl_Task_numConstructedTasks__C                                
00000502  ti_sysbios_family_arm_cc26xx_Timer_Module__id__C                          
00000504  ti_sysbios_family_arm_cc26xx_TimestampProvider_useClockTimer__C           
00000506  ti_sysbios_family_arm_m3_Hwi_Module__id__C                                
00000508  ti_sysbios_gates_GateHwi_Module__id__C                                    
0000050a  ti_sysbios_gates_GateMutex_Module__id__C                                  
0000050c  ti_sysbios_heaps_HeapMem_Module__id__C                                    
0000050e  ti_sysbios_knl_Task_initStackFlag__C                                      
00000510  ti_sysbios_knl_Clock_tickMode__C                                          
00000514  xdc_runtime_Startup_firstFxns__C                                          
0000051c  xdc_runtime_Startup_lastFxns__C                                           
00000524  xdc_runtime_Assert_E_assertFailed__C                                      
00000528  xdc_runtime_Error_E_memory__C                                             
0000052c  xdc_runtime_Error_policyFxn__C                                            
00000530  xdc_runtime_IGateProvider_Interface__BASE__C                              
00000534  xdc_runtime_IHeap_Interface__BASE__C                                      
00000538  xdc_runtime_IModule_Interface__BASE__C                                    
0000053c  xdc_runtime_Main_Module__diagsEnabled__C                                  
00000540  xdc_runtime_Main_Module__diagsIncluded__C                                 
00000544  xdc_runtime_Main_Module__diagsMask__C                                     
00000548  xdc_runtime_Memory_defaultHeapInstance__C                                 
0000054c  xdc_runtime_Startup_execImpl__C                                           
00000550  xdc_runtime_Startup_maxPasses__C                                          
00000554  xdc_runtime_Startup_sfxnRts__C                                            
00000558  xdc_runtime_Startup_sfxnTab__C                                            
0000055c  xdc_runtime_Startup_startModsFxn__C                                       
00000560  xdc_runtime_SysCallback_abortFxn__C                                       
00000564  xdc_runtime_SysCallback_exitFxn__C                                        
00000568  xdc_runtime_System_abortFxn__C                                            
0000056c  xdc_runtime_System_exitFxn__C                                             
00000570  xdc_runtime_System_maxAtexitHandlers__C                                   
00000574  xdc_runtime_Text_charTab__C                                               
00000578  xdc_runtime_Text_nameEmpty__C                                             
0000057c  xdc_runtime_Text_nameStatic__C                                            
00000580  xdc_runtime_Text_nameUnknown__C                                           
00000584  xdc_runtime_Main_Module__id__C                                            
00000586  xdc_runtime_Memory_Module__id__C                                          
00000588  xdc_runtime_Text_charCnt__C                                               
0000058a  xdc_runtime_Text_isLoaded__C                                              
0000058c  xdc_runtime_Error_policy__C                                               
00000590  ti_sysbios_rom_ROM_AONRTCChannelEnable                                    
00000594  ti_sysbios_rom_ROM_AONRTCCompareValueSet                                  
00000598  ti_sysbios_rom_ROM_AONRTCCurrentCompareValueGet                           
0000059c  ti_sysbios_rom_ROM_AONRTCEventClear                                       
000005a0  ti_sysbios_rom_ROM_ti_sysbios_family_arm_cc26xx_Timer_getCount64__E       
000005a4  ti_sysbios_rom_ROM_ti_sysbios_family_arm_cc26xx_Timer_getCurrentTick__E   
000005a8  ti_sysbios_rom_ROM_ti_sysbios_family_arm_cc26xx_Timer_getMaxTicks__E      
000005ac  ti_sysbios_rom_ROM_ti_sysbios_family_arm_cc26xx_Timer_initDevice__I       
000005b0  ti_sysbios_rom_ROM_ti_sysbios_family_arm_cc26xx_Timer_setNextTick__E      
000005b4  ti_sysbios_rom_ROM_ti_sysbios_family_arm_cc26xx_Timer_setThreshold__I     
000005b8  ti_sysbios_rom_ROM_ti_sysbios_family_arm_cc26xx_Timer_start__E            
000005bc  ti_sysbios_rom_ROM_ti_sysbios_family_arm_cc26xx_TimestampProvider_get32__E
000005c0  ti_sysbios_rom_ROM_xdc_runtime_Startup_getState__I                        
000005c4  ti_sysbios_rom_ROM_xdc_runtime_System_SupportProxy_abort__E               
000005c8  ti_sysbios_rom_ROM_xdc_runtime_System_SupportProxy_exit__E                
000005cc  ti_sysbios_gates_GateMutex_Instance_State_sem__O                          
000005d0  ti_sysbios_knl_Clock_Module_State_clockQ__O                               
000005d4  ti_sysbios_knl_Mailbox_Instance_State_dataQue__O                          
000005d8  ti_sysbios_knl_Mailbox_Instance_State_dataSem__O                          
000005dc  ti_sysbios_knl_Mailbox_Instance_State_freeQue__O                          
000005e0  ti_sysbios_knl_Mailbox_Instance_State_freeSem__O                          
000005e4  ti_sysbios_knl_Semaphore_Instance_State_pendQ__O                          
000005e8  ti_sysbios_knl_Task_Module_State_inactiveQ__O                             
00000bbb  __aeabi_idiv0                                                             
000010a1  xdc_runtime_System_doPrint__I                                             
0000190d  ButtonService_SetParameter                                                
00001c8d  DataService_SetParameter                                                  
00002a45  ti_sysbios_family_arm_cc26xx_Power_auxISR__E                              
00002d91  GAPRole_SetParameter                                                      
000030bd  ti_sysbios_family_arm_cc26xx_Power_sleep__E                               
00004055  LedService_SetParameter                                                   
0000471d  __aeabi_uldivmod                                                          
00004cd5  GAPRole_GetParameter                                                      
00004e95  SysCtrlSetRechargeBeforePowerDown                                         
0000503f  ti_sysbios_BIOS_nullFunc__I                                               
00005041  PIN_init                                                                  
00005671  UARTCC26XX_open                                                           
0000593d  DevInfo_SetParameter                                                      
00005d25  ButtonService_RegisterAppCBs                                              
00005e5d  DataService_RegisterAppCBs                                                
00005f91  LedService_RegisterAppCBs                                                 
000060c1  xdc_runtime_Text_putSite__E                                               
000061f1  SPICC26XXDMA_open                                                         
0000655d  ButtonService_AddService                                                  
00006665  swiFunc                                                                   
00006975  SPICC26XXDMA_transferCancel                                               
00006a75  UARTCC26XX_write                                                          
00006d71  __aeabi_dmul                                                              
00006e6d  xdc_runtime_Text_putLab__E                                                
00006f69  ti_sysbios_family_arm_cc26xx_Power_startFirstMeasurement__E               
00007159  xdc_runtime_System_printfExtend__I                                        
00007251  ti_sysbios_family_arm_cc26xx_Power_standbyPolicy__E                       
0000751b  UARTCC26XX_hwiIntFxn                                                      
00007603  ti_sysbios_family_arm_cc26xx_Power_defaultClockFunc__E                    
00007605  DataService_AddService                                                    
000078ad  ti_sysbios_family_arm_cc26xx_Power_setDependency__E                       
00007a55  ti_sysbios_family_arm_cc26xx_Power_releaseDependency__E                   
00007bed  SPICC26XXDMA_transfer                                                     
00007cad  UARTCC26XX_read                                                           
00007ee1  LedService_AddService                                                     
00008049  ti_sysbios_family_arm_cc26xx_Boot_trimDevice                              
00008049  trimDevice                                                                
000080fd  GATTServApp_ProcessCharCfg                                                
000081ad  ti_sysbios_knl_Clock_workFuncDynamic__E                                   
00008305  ti_sysbios_family_arm_cc26xx_Power_initiateCalibration__E                 
000083a9  __TI_auto_init                                                            
00008449  ICall_heapMalloc                                                          
00008581  __aeabi_memcpy                                                            
00008581  __aeabi_memcpy4                                                           
00008581  __aeabi_memcpy8                                                           
00008581  memcpy                                                                    
000086b5  OSCHF_GetStartupTime                                                      
000086b5  ti_sysbios_family_arm_cc26xx_Power_getXoscStartupTime__E                  
000087dd  PIN_open                                                                  
000088fd  UARTCC26XX_writeCancel                                                    
00008989  ti_sysbios_family_arm_cc26xx_Power_LF_clockFunc__E                        
00008a15  ti_sysbios_family_arm_cc26xx_Power_Module_startup__E                      
00008aa1  uartLog_outputFxn                                                         
00008b2d  ICall_createRemoteTasks                                                   
00008bb5  ti_sysbios_family_arm_cc26xx_Timer_start__E                               
00008c3d  uartLog_flush                                                             
00008dc3  ChipInfo_GetHwRevision                                                    
00008e3f  __aeabi_memclr                                                            
00008e3f  __aeabi_memclr4                                                           
00008e3f  __aeabi_memclr8                                                           
00008e41  __aeabi_memset                                                            
00008e41  __aeabi_memset4                                                           
00008e41  __aeabi_memset8                                                           
00008e47  memset                                                                    
00008eb9  ICallPlatform_pwrUpdActivityCounter                                       
00009095  SPICC26XXDMA_control                                                      
00009109  UARTCC26XX_close                                                          
0000917d  GAPRole_SendUpdateParam                                                   
000091ed  UARTCC26XX_readCancel                                                     
0000925d  OSCHF_AttemptToSwitchToXosc                                               
000092cb  ti_sysbios_family_arm_cc26xx_Power_defaultNotifyTrapFunc__E               
000092cd  PIN_add                                                                   
000093a3  ti_sysbios_rom_cortexm_cc26xx_CC26xx_badRomRevision__E                    
0000940d  SysCtrl_DCDC_VoltageConditionalControl                                    
00009473  SysCtrlAdjustRechargeAfterPowerDown                                       
000094d5  ICallPlatform_pwrRegisterNotify                                           
000095f5  SPI_Init_PZ                                                               
00009655  ti_sysbios_family_arm_cc26xx_Power_XOSC_HF_clockFunc__E                   
000096b5  ti_sysbios_family_arm_cc26xx_Timer_setNextTick__E                         
00009715  PIN_remove                                                                
00009771  xdc_runtime_Startup_getState__I                                           
000097cd  OSCHF_SwitchToRcOscTurnOffXosc                                            
00009825  UDMACC26XX_open                                                           
0000987d  Util_convertBdAddr2Str                                                    
000098d5  ti_sysbios_family_arm_cc26xx_Power_notify__I                              
0000992d  NOROM_DDI16BitfieldWrite                                                  
00009983  xdc_runtime_SysCallback_defaultAbort                                      
00009a2d  GATTServApp_ProcessCCCWriteReq                                            
00009b7d  Util_constructClock                                                       
00009bd1  C$$EXIT                                                                   
00009bd5  abort                                                                     
00009bd5  xdc_runtime_System_abortStd__E                                            
00009bdd  exit                                                                      
00009bdd  xdc_runtime_System_exitStd__E                                             
00009c79  xdc_runtime_Text_visitRope2__I                                            
00009d1f  NOROM_OSCClockSourceSet                                                   
00009d71  GAP_DeviceInit                                                            
00009e61  SPICC26XXDMA_close                                                        
00009eaf  xdc_runtime_SysCallback_defaultExit                                       
00009f95  copy_in                                                                   
00009fe1  xdc_runtime_Text_xprintf__I                                               
0000a02d  GAP_UpdateAdvertisingData                                                 
0000a075  PIN_setOutputEnable                                                       
0000a0bd  __aeabi_d2iz                                                              
0000a105  xdc_runtime_LoggerCallback_write8__E                                      
0000a14d  ICallPlatform_pwrConfigACAction                                           
0000a25d  ResetISR                                                                  
0000a25d  _c_int00                                                                  
0000a2ed  ti_sysbios_family_arm_cc26xx_Timer_initDevice__I                          
0000a331  xdc_runtime_LoggerCallback_Module_startup__E                              
0000a375  NOROM_DDI16BitfieldRead                                                   
0000a3f9  GAPBondMgr_LinkEst                                                        
0000a439  GAP_TerminateLinkReq                                                      
0000a479  GATTServApp_RegisterService                                               
0000a4f9  __aeabi_uidiv                                                             
0000a4f9  __aeabi_uidivmod                                                          
0000a579  ti_sysbios_family_arm_cc26xx_Power_XOSC_HF                                
0000a5b9  ti_sysbios_family_arm_cc26xx_Power_isStableXOSC_HF__E                     
0000a5f9  ti_sysbios_family_arm_cc26xx_Timer_getCurrentTick__E                      
0000a679  NOROM_OSCInterfaceEnable                                                  
0000a6f5  GAPRole_createTask                                                        
0000a739  GAP_GetParamValue                                                         
0000a775  ICall_init                                                                
0000a7b1  PINCC26XX_getConfig                                                       
0000a7ed  ProjectZero_createTask                                                    
0000a8a1  ti_sysbios_family_arm_cc26xx_Power_releaseConstraint__E                   
0000a8dd  GAPBondMgr_PasscodeRsp                                                    
0000a915  GAPBondMgr_SetParameter                                                   
0000a94d  GATTServApp_InitCharCfg                                                   
0000a985  GATT_SendRsp                                                              
0000a9bd  ICall_freeImpl                                                            
0000a9bd  ICall_heapFree                                                            
0000a9f5  ICall_heapInit                                                            
0000aa9d  OSCHF_TurnOnXosc                                                          
0000aad5  PIN_setInterrupt                                                          
0000ab0d  PIN_setOutputValue                                                        
0000ab7d  SW_interrupt_init                                                         
0000abcd  linkDB_NumConns                                                           
0000ac05  main                                                                      
0000ac45  osal_snv_read                                                             
0000ac7d  osal_snv_write                                                            
0000aced  ti_sysbios_family_arm_cc26xx_Power_setConstraint__E                       
0000ad25  ti_sysbios_family_arm_cc26xx_Timer_setThreshold__I                        
0000ad95  xdc_runtime_LoggerCallback_write4__E                                      
0000aedb  ChipInfo_GetChipFamily                                                    
0000af0f  xdc_runtime_SysCallback_defaultPutch                                      
0000af11  GAP_SetParamValue                                                         
0000b015  PIN_setConfig                                                             
0000b049  Util_restartClock                                                         
0000b0e5  xdc_runtime_Text_printVisFxn__I                                           
0000b2dd  ti_sysbios_BIOS_atExitFunc__I                                             
0000b315  ti_sysbios_family_arm_cc26xx_Power_registerNotify__E                      
0000b34d  ti_sysbios_family_arm_cc26xx_Power_switchXOSC_HF__E                       
0000b37d  xdc_runtime_LoggerCallback_Object__create__S                              
0000b3b5  xdc_runtime_LoggerCallback_write2__E                                      
0000b413  AONBatMonTemperatureGetDegC                                               
0000b441  GAPRole_TerminateConnection                                               
0000b549  PINCC26XX_setMux                                                          
0000b5f3  UDMACC26XX_close                                                          
0000b647  GAPBondMgr_LinkTerm                                                       
0000b66f  GAPBondMgr_Register                                                       
0000b7d9  NOROM_AONRTCCurrentCompareValueGet                                        
0000b851  ti_sysbios_family_arm_cc26xx_Power_isDependencyActive                     
0000b879  ti_sysbios_family_arm_cc26xx_Timer_getMaxTicks__E                         
0000b8a1  xdc_runtime_LoggerCallback_write0__E                                      
0000b8c9  xdc_runtime_LoggerCallback_write1__E                                      
0000b8f1  xdc_runtime_System_snprintf__E                                            
0000b919  GATTServApp_WriteCharCfg                                                  
0000b93f  NOROM_OSCClockSourceGet                                                   
0000b965  UARTCC26XX_control                                                        
0000b9b1  GAPRole_StartDevice                                                       
0000b9d5  HCI_EXT_ConnEventNoticeCmd                                                
0000b9f9  ti_sysbios_BIOS_registerRTSLock__I                                        
0000ba1d  ti_sysbios_BIOS_removeRTSLock__I                                          
0000ba41  ti_sysbios_BIOS_startFunc__I                                              
0000ba8d  ti_sysbios_family_arm_cc26xx_Timer_dynamicStub__E                         
0000bad3  memcmp                                                                    
0000baf5  GATTServApp_FindAttr                                                      
0000bb15  GATT_bm_alloc                                                             
0000bc55  __aeabi_ui2d                                                              
0000bc75  ti_sysbios_BIOS_rtsLock__I                                                
0000bc9d  ti_sysbios_family_arm_cc26xx_TimestampProvider_get32__E                   
0000bc9d  xdc_runtime_Timestamp_SupportProxy_get32__E__mangled__                    
0000bcbd  GATT_Notification                                                         
0000bcf9  PIN_close                                                                 
0000bdc5  ti_sysbios_family_arm_cc26xx_Power_unregisterNotify__E                    
0000bde9  xdc_runtime_LoggerCallback_Instance_init__E                               
0000be05  ICall_enterCSImpl                                                         
0000be87  ChipInfo_GetPackageType                                                   
0000bea1  GATT_bm_free                                                              
0000beb9  GGS_SetParameter                                                          
0000bed1  ICallPlatform_pwrDispense                                                 
0000bee9  ICallPlatform_pwrRequire                                                  
0000bf19  PIN_getConfig                                                             
0000bf31  SPI_open                                                                  
0000bf49  UART_Params_init                                                          
0000bf61  UART_open                                                                 
0000bf79  gapRole_clockHandler                                                      
0000bf91  _args_main                                                                
0000bfa9  __aeabi_lmul                                                              
0000bfc1  ti_sysbios_BIOS_rtsUnlock__I                                              
0000bfe1  ti_sysbios_family_arm_cc26xx_Power_RFCORECLKS                             
0000bff9  ti_sysbios_family_arm_cc26xx_Timer_getCount64__E                          
0000c011  ti_sysbios_rom_cortexm_cc26xx_CC26xx_checkRevision__E                     
0000c029  ICall_leaveCSImpl                                                         
0000c055  exceptionHandler                                                          
0000c06b  ti_sysbios_BIOS_exitFunc__I                                               
0000c081  DevInfo_AddService                                                        
0000c095  ICallPlatform_pwrIsStableXOSCHF                                           
0000c0a9  PIN_getInputValue                                                         
0000c0bd  SPICC26XXDMA_init                                                         
0000c0d1  SPI_Params_init                                                           
0000c0e5  ThisCodeIsBuiltForCC26xxHwRev22AndLater_HaltIfViolated                    
0000c0f9  _register_unlock                                                          
0000c0ff  _register_lock                                                            
0000c107  _nop                                                                      
0000c10d  strlen                                                                    
0000c135  ti_sysbios_knl_Clock_doTick__I                                            
0000c151  xdc_runtime_Startup_exec__I                                               
0000c16d  GAP_EndDiscoverable                                                       
0000c17d  GAP_UpdateLinkParamReq                                                    
0000c18d  GATTServApp_ReadCharCfg                                                   
0000c19d  ICallPlatform_pwrGetXOSCStartupTime                                       
0000c1cd  UARTCC26XX_init                                                           
0000c1dd  Util_isActive                                                             
0000c1fd  xdc_runtime_LoggerCallback_Object__get__S                                 
0000c20d  xdc_runtime_SysCallback_putch__E                                          
0000c20d  xdc_runtime_System_SupportProxy_putch__E                                  
0000c21d  xdc_runtime_SysCallback_ready__E                                          
0000c21d  xdc_runtime_System_SupportProxy_ready__E                                  
0000c22d  ICallPlatform_pwrGetTransitionState                                       
0000c285  NOROM_VIMSModeGet                                                         
0000c293  __TI_decompress_none                                                      
0000c2f5  GAP_MakeDiscoverable                                                      
0000c301  GAP_TerminateAuth                                                         
0000c30d  GATT_Indication                                                           
0000c365  NOROM_CPUcpsid                                                            
0000c371  NOROM_CPUcpsie                                                            
0000c37d  PIN_registerIntCb                                                         
0000c389  UartLog_doInit                                                            
0000c3ad  ti_sysbios_BIOS_getThreadType__E                                          
0000c3b9  ti_sysbios_family_arm_cc26xx_Power_getDependencyCount__E                  
0000c3c5  ti_sysbios_family_arm_cc26xx_Power_getTransitionState__E                  
0000c3d1  ti_sysbios_hal_Hwi_Params__init__S                                        
0000c3e5  xdc_runtime_Startup_reset__I                                              
0000c3f1  ICallPlatform_pwrSwitchXOSCHF                                             
0000c405  SPI_transfer                                                              
0000c40f  UART_write                                                                
0000c419  UDMACC26XX_hwiIntFxn                                                      
0000c423  xdc_runtime_LoggerCallback_disable__E                                     
0000c42d  xdc_runtime_LoggerCallback_enable__E                                      
0000c437  xdc_runtime_Text_visitRope__I                                             
0000c441  GATT_RegisterForMsgs                                                      
0000c449  GGS_AddService                                                            
0000c479  GATTServApp_AddService                                                    
0000c47f  ICall_mallocImpl                                                          
0000c485  UARTCC26XX_readPolling                                                    
0000c48b  UARTCC26XX_writePolling                                                   
0000c491  __TI_decompress_rle24                                                     
0000c4e5  Util_stopClock                                                            
0000c4e9  ti_sysbios_family_arm_cc26xx_Power_NOP                                    
0000c4ed  ti_sysbios_knl_Clock_isActive__E                                          
0000c4f1  xdc_runtime_LoggerCallback_defaultCreate                                  
0000c4f5  xdc_runtime_SysCallback_defaultReady                                      
0000c630  xdc_runtime_Text_charTab__A                                               
0000dd72  characterUUID                                                             
0000de18  SPICC26XXDMA_fxnTable                                                     
0000de6c  ti_sysbios_family_arm_cc26xx_Power_db                                     
0000df40  xdc_runtime_LoggerCallback_Module__FXNS__C                                
0000df74  xdc_runtime_Startup_sfxnTab__A                                            
0000dfc8  UARTCC26XX_fxnTable                                                       
0000dff0  Button_ServiceCBs                                                         
0000dffc  clientCharCfgUUID                                                         
0001f000  spiCC26XXDMAHWAttrs                                                       
0001f028  txPowerTable                                                              
0001f050  SPI_config                                                                
0001f074  UART_defaultParams                                                        
0001f098  BoardGpioInitTable                                                        
0001f0b8  SPI_defaultParams                                                         
0001f0d8  xdc_runtime_LoggerCallback_Object__DESC__C                                
0001f0f8  xdc_runtime_LoggerCallback_Object__PARAMS__C                              
0001f114  UART_config                                                               
0001f12c  xdc_runtime_Startup_sfxnRts__A                                            
0001f175  ButtonServiceUUID                                                         
0001f185  DataServiceUUID                                                           
0001f195  LedServiceUUID                                                            
0001f1a5  bs_BUTTON0UUID                                                            
0001f1b5  bs_BUTTON1UUID                                                            
0001f1c5  ds_StreamUUID                                                             
0001f1d5  ds_StringUUID                                                             
0001f1e5  ls_LED0UUID                                                               
0001f1f5  ls_LED1UUID                                                               
0001f205  devInfo11073CertUUID                                                      
0001f208  UDMACC26XX_config                                                         
0001f218  uartCC26XXHWAttrs                                                         
0001f228  xdc_runtime_Text_nodeTab__A                                               
0001f238  Data_ServiceCBs                                                           
0001f250  LED_ServiceCBs                                                            
0001f25c  devInfoCBs                                                                
0001f268  xdc_runtime_Startup_firstFxns__A                                          
0001f294  ti_sysbios_knl_Idle_funcList__A                                           
0001f29c  udmaHWAttrs                                                               
0001f2a4  txPwrTbl                                                                  
0001f2aa  devInfoFirmwareRevUUID                                                    
0001f2b8  ti_sysbios_family_arm_cc26xx_Power_Module_State_clockObj__O               
0001f2bc  ti_sysbios_family_arm_cc26xx_Power_Module_State_lfClockObj__O             
0001f2c0  ti_sysbios_family_arm_cc26xx_Power_Module_State_notifyQ__O                
0001f2c4  ti_sysbios_family_arm_cc26xx_Power_notifyTrapFunc__C                      
0001f2c8  ti_sysbios_family_arm_cc26xx_Power_totalTicksSTANDBY__C                   
0001f2cc  ti_sysbios_family_arm_cc26xx_Power_wakeDelaySTANDBY__C                    
0001f2d0  ti_sysbios_family_arm_m3_Hwi_disablePriority__C                           
0001f2d4  ti_sysbios_knl_Clock_tickPeriod__C                                        
0001f2d8  xdc_runtime_ILogger_Interface__BASE__C                                    
0001f2dc  xdc_runtime_Log_L_error__C                                                
0001f2e0  xdc_runtime_Log_L_info__C                                                 
0001f2e4  xdc_runtime_Log_L_warning__C                                              
0001f2e8  xdc_runtime_LoggerCallback_Object__count__C                               
0001f2ec  xdc_runtime_LoggerCallback_createInstFxn__C                               
0001f2f0  xdc_runtime_LoggerCallback_outputFxn__C                                   
0001f2f4  xdc_runtime_Main_Module__loggerFxn4__C                                    
0001f2f8  xdc_runtime_Main_Module__loggerFxn8__C                                    
0001f2fc  xdc_runtime_Main_Module__loggerObj__C                                     
0001f300  xdc_runtime_SysCallback_putchFxn__C                                       
0001f304  xdc_runtime_SysCallback_readyFxn__C                                       
0001f308  xdc_runtime_System_extendFxn__C                                           
0001f30c  xdc_runtime_Text_nodeTab__C                                               
0001f310  xdc_runtime_Text_visitRopeFxn__C                                          
0001f314  devInfoHardwareRevUUID                                                    
0001f316  devInfoMfrNameUUID                                                        
0001f318  devInfoModelNumberUUID                                                    
0001f31a  devInfoPnpIdUUID                                                          
0001f31c  devInfoSerialNumberUUID                                                   
0001f31e  devInfoServUUID                                                           
0001f320  devInfoSoftwareRevUUID                                                    
0001f322  devInfoSystemIdUUID                                                       
0001f324  primaryServiceUUID                                                        
0001f326  xdc_runtime_Main_Module__loggerDefined__C                                 
0001f328  xdc_runtime_Text_registryModsLastId__C                                    
0001f32a  xdc_runtime_Text_unnamedModsLastId__C                                     
0001f330  __TI_static_base__                                                        
0001fab4  __TI_Handler_Table_Base                                                   
0001fabc  __TI_CINIT_Base                                                           
0001fabc  __TI_Handler_Table_Limit                                                  
0001fb44  __TI_CINIT_Limit                                                          
0001ffa8  __ccfg                                                                    
1001a001  ti_sysbios_knl_Mailbox_Instance_init__E                                   
1001a0cd  ti_sysbios_knl_Semaphore_pend__E                                          
1001a199  ti_sysbios_heaps_HeapMem_alloc__E                                         
1001a25d  ti_sysbios_knl_Task_Instance_init__E                                      
1001a319  ti_sysbios_family_arm_m3_Hwi_postInit__I                                  
1001a3c9  ti_sysbios_family_arm_m3_Hwi_Instance_init__E                             
1001a469  ti_sysbios_family_arm_cc26xx_Timer_periodicStub__E                        
1001a4fd  ti_sysbios_knl_Task_Instance_finalize__E                                  
1001a591  ti_sysbios_knl_Mailbox_post__E                                            
1001a615  ti_sysbios_knl_Task_postInit__I                                           
1001a699  ti_sysbios_family_arm_m3_Hwi_initNVIC__E                                  
1001a719  ti_sysbios_knl_Clock_startI__E                                            
1001a795  ti_sysbios_heaps_HeapMem_free__E                                          
1001a80d  ti_sysbios_knl_Clock_walkQueueDynamic__E                                  
1001a885  ti_sysbios_knl_Clock_workFunc__E                                          
1001a8fd  ti_sysbios_knl_Mailbox_pend__E                                            
1001a96d  ti_sysbios_knl_Task_sleep__E                                              
1001a9dd  ti_sysbios_knl_Mailbox_Instance_finalize__E                               
1001aa49  ti_sysbios_family_arm_m3_Hwi_dispatchC__I                                 
1001aab1  ti_sysbios_family_arm_m3_Hwi_Object__create__S                            
1001ab15  ti_sysbios_family_arm_m3_Hwi_create                                       
1001ab79  ti_sysbios_hal_Hwi_create                                                 
1001abdd  ti_sysbios_knl_Mailbox_create                                             
1001ac41  ti_sysbios_knl_Semaphore_post__E                                          
1001aca5  ti_sysbios_knl_Swi_Instance_init__E                                       
1001ad05  ti_sysbios_knl_Swi_create                                                 
1001ad61  ti_sysbios_knl_Swi_restoreHwi__E                                          
1001adbd  ti_sysbios_knl_Task_Module_startup__E                                     
1001ae19  ti_sysbios_knl_Task_create                                                
1001ae75  ti_sysbios_knl_Task_startCore__E                                          
1001aed1  ti_sysbios_family_arm_m3_Hwi_Instance_finalize__E                         
1001af29  ti_sysbios_family_arm_m3_Hwi_construct                                    
1001af81  ti_sysbios_knl_Mailbox_construct                                          
1001afd9  ti_sysbios_knl_Swi_run__I                                                 
1001b031  ti_sysbios_knl_Swi_schedule__I                                            
1001b085  ti_sysbios_knl_Swi_construct                                              
1001b0d5  ti_sysbios_knl_Swi_runLoop__I                                             
1001b125  ti_sysbios_knl_Task_construct                                             
1001b175  ti_sysbios_knl_Task_schedule__I                                           
1001b1c1  ti_sysbios_family_arm_m3_Hwi_Module_startup__E                            
1001b209  ti_sysbios_heaps_HeapMem_getStats__E                                      
1001b251  ti_sysbios_knl_Mailbox_Module_startup__E                                  
1001b299  ti_sysbios_family_arm_m3_Hwi_disableInterrupt__E                          
1001b2dd  ti_sysbios_family_arm_m3_Hwi_enableInterrupt__E                           
1001b321  ti_sysbios_knl_Swi_post__E                                                
1001b365  ti_sysbios_knl_Task_allBlockedFunction__I                                 
1001b3a9  ti_sysbios_knl_Task_yield__E                                              
1001b3ed  ti_sysbios_knl_Clock_create                                               
1001b429  ti_sysbios_knl_Task_exit__E                                               
1001b463  ti_sysbios_gates_GateHwi_Instance_init__E                                 
1001b465  ti_sysbios_family_arm_m3_Hwi_getStackInfo__E                              
1001b49d  ti_sysbios_family_arm_m3_TaskSupport_start__E                             
1001b4d5  ti_sysbios_heaps_HeapMem_Instance_init__E                                 
1001b50d  ti_sysbios_knl_Clock_Instance_init__E                                     
1001b545  ti_sysbios_heaps_HeapMem_init__I                                          
1001b579  ti_sysbios_knl_Clock_construct                                            
1001b5ad  ti_sysbios_knl_Semaphore_create                                           
1001b5e1  ti_sysbios_knl_Swi_restore__E                                             
1001b615  ti_sysbios_knl_Task_blockI__E                                             
1001b649  ti_sysbios_gates_GateMutex_Object__create__S                              
1001b679  ti_sysbios_gates_GateMutex_create                                         
1001b6a9  ti_sysbios_gates_GateMutex_enter__E                                       
1001b6d9  ti_sysbios_knl_Clock_getTicks__E                                          
1001b709  ti_sysbios_knl_Semaphore_construct                                        
1001b739  ti_sysbios_knl_Task_processVitalTaskFlag__I                               
1001b769  ti_sysbios_family_arm_cc26xx_Timer_postInit__I                            
1001b795  ti_sysbios_family_arm_cc26xx_Timer_startup__E                             
1001b795  ti_sysbios_knl_Clock_TimerProxy_startup__E                                
1001b7c1  ti_sysbios_family_arm_m3_Hwi_Object__get__S                               
1001b7ed  ti_sysbios_gates_GateMutex_construct                                      
1001b819  ti_sysbios_hal_Hwi_initStack                                              
1001b845  ti_sysbios_heaps_HeapMem_Object__create__S                                
1001b871  ti_sysbios_heaps_HeapMem_Object__get__S                                   
1001b89d  ti_sysbios_knl_Mailbox_Object__get__S                                     
1001b8c9  ti_sysbios_knl_Mailbox_postInit__I                                        
1001b8f5  ti_sysbios_knl_Queue_construct                                            
1001b921  ti_sysbios_knl_Queue_create                                               
1001b94d  ti_sysbios_knl_Semaphore_pendTimeout__I                                   
1001b979  ti_sysbios_knl_Swi_Object__get__S                                         
1001b9a5  ti_sysbios_knl_Task_unblockI__E                                           
1001b9d1  ti_sysbios_family_arm_cc26xx_TimestampProvider_get64__E                   
1001b9d1  xdc_runtime_Timestamp_SupportProxy_get64__E                               
1001b9d1  xdc_runtime_Timestamp_get64__E                                            
1001b9f9  ti_sysbios_hal_Hwi_Instance_init__E                                       
1001ba21  ti_sysbios_knl_Clock_addI__E                                              
1001ba49  ti_sysbios_knl_Task_restore__E                                            
1001ba71  ti_sysbios_family_arm_cc26xx_Timer_Module_startup__E                      
1001ba95  ti_sysbios_gates_GateHwi_Object__create__S                                
1001bab9  ti_sysbios_BIOS_RtsGateProxy_Object__delete__S                            
1001bab9  ti_sysbios_gates_GateMutex_Object__delete__S                              
1001bab9  ti_sysbios_heaps_HeapMem_Module_GateProxy_Object__delete__S               
1001badd  ti_sysbios_knl_Clock_Object__delete__S                                    
1001bb01  ti_sysbios_knl_Semaphore_Instance_init__E                                 
1001bb25  ti_sysbios_knl_Semaphore_Object__delete__S                                
1001bb49  ti_sysbios_family_arm_cc26xx_Timer_Module__startupDone__S                 
1001bb69  ti_sysbios_family_arm_cc26xx_TimestampProvider_Module_startup__E          
1001bb89  ti_sysbios_family_arm_m3_Hwi_Module__startupDone__S                       
1001bba9  ti_sysbios_family_arm_m3_Hwi_Object__delete__S                            
1001bba9  ti_sysbios_hal_Hwi_HwiProxy_Object__delete__S                             
1001bbc9  ti_sysbios_family_arm_m3_Hwi_excHandler__I                                
1001bbe9  ti_sysbios_gates_GateHwi_Handle__label__S                                 
1001bbe9  xdc_runtime_System_Module_GateProxy_Handle__label__S                      
1001bc09  ti_sysbios_gates_GateHwi_Object__delete__S                                
1001bc09  xdc_runtime_System_Module_GateProxy_Object__delete__S                     
1001bc29  ti_sysbios_BIOS_RtsGateProxy_Handle__label__S                             
1001bc29  ti_sysbios_gates_GateMutex_Handle__label__S                               
1001bc29  ti_sysbios_heaps_HeapMem_Module_GateProxy_Handle__label__S                
1001bc49  ti_sysbios_gates_GateMutex_Object__destruct__S                            
1001bc69  ti_sysbios_hal_Hwi_Object__delete__S                                      
1001bc89  ti_sysbios_heaps_HeapMem_Handle__label__S                                 
1001bc89  xdc_runtime_Memory_HeapProxy_Handle__label__S                             
1001bca9  ti_sysbios_heaps_HeapMem_Object__delete__S                                
1001bca9  xdc_runtime_Memory_HeapProxy_Object__delete__S                            
1001bcc9  ti_sysbios_knl_Clock_Module_startup__E                                    
1001bce9  ti_sysbios_knl_Clock_Object__destruct__S                                  
1001bd09  ti_sysbios_knl_Idle_run__E                                                
1001bd29  ti_sysbios_knl_Mailbox_Object__delete__S                                  
1001bd49  ti_sysbios_knl_Queue_Object__delete__S                                    
1001bd69  ti_sysbios_knl_Queue_Object__get__S                                       
1001bd89  ti_sysbios_knl_Semaphore_Object__destruct__S                              
1001bda9  ti_sysbios_knl_Swi_Object__delete__S                                      
1001bdc9  ti_sysbios_knl_Task_Object__delete__S                                     
1001bde9  ti_sysbios_knl_Task_Object__get__S                                        
1001be09  ti_sysbios_knl_Task_enter__I                                              
1001be29  ti_sysbios_knl_Task_restoreHwi__E                                         
1001be49  ti_sysbios_hal_Hwi_HwiProxy_create                                        
1001be67  ti_sysbios_knl_Clock_logTick__E                                           
1001be69  ti_sysbios_family_arm_m3_Hwi_Object__destruct__S                          
1001be85  ti_sysbios_family_arm_m3_Hwi_setPriority__E                               
1001bea1  ti_sysbios_gates_GateMutex_Instance_init__E                               
1001bebd  ti_sysbios_knl_Clock_scheduleNextTick__E                                  
1001bed9  ti_sysbios_knl_Mailbox_Object__destruct__S                                
1001bef5  ti_sysbios_knl_Queue_Object__destruct__S                                  
1001bf11  ti_sysbios_knl_Queue_get__E                                               
1001bf2d  ti_sysbios_knl_Queue_put__E                                               
1001bf49  ti_sysbios_knl_Swi_Object__destruct__S                                    
1001bf65  ti_sysbios_knl_Task_Object__destruct__S                                   
1001bf81  ti_sysbios_knl_Task_sleepTimeout__I                                       
1001bf9b  ti_sysbios_knl_Swi_Instance_finalize__E                                   
1001bf9d  ti_sysbios_gates_GateMutex_leave__E                                       
1001bfb5  ti_sysbios_knl_Task_unblock__E                                            
1001bfcd  ti_sysbios_knl_Clock_Instance_finalize__E                                 
1001bfe3  ti_sysbios_knl_Clock_start__E                                             
1001bff9  ti_sysbios_BIOS_getCpuFreq__E                                             
1001c00d  ti_sysbios_family_arm_m3_Hwi_switchFromBootStack__E                       
1001c021  ti_sysbios_hal_Hwi_Module_startup__E                                      
1001c035  ti_sysbios_BIOS_exit__E                                                   
1001c045  ti_sysbios_BIOS_setThreadType__E                                          
1001c055  ti_sysbios_BIOS_start__E                                                  
1001c065  ti_sysbios_family_arm_m3_Hwi_plug__E                                      
1001c075  ti_sysbios_gates_GateMutex_Instance_finalize__E                           
1001c085  ti_sysbios_hal_Hwi_HwiProxy_Object__create__S                             
1001c095  ti_sysbios_knl_Clock_TimerProxy_getCurrentTick__E                         
1001c0a5  ti_sysbios_knl_Clock_TimerProxy_getMaxTicks__E                            
1001c0b5  ti_sysbios_knl_Clock_TimerProxy_setNextTick__E                            
1001c0c5  ti_sysbios_knl_Semaphore_Instance_finalize__E                             
1001c0d5  ti_sysbios_knl_Swi_disable__E                                             
1001c0e5  ti_sysbios_knl_Swi_enabled__E                                             
1001c0f5  ti_sysbios_knl_Task_disable__E                                            
1001c105  ti_sysbios_heaps_HeapMem_restore__E                                       
1001c113  ti_sysbios_knl_Queue_empty__E                                             
1001c121  ti_sysbios_knl_Queue_remove__E                                            
1001c12f  ti_sysbios_family_arm_cc26xx_TimestampProvider_getFreq__E                 
1001c12f  xdc_runtime_Timestamp_SupportProxy_getFreq__E                             
1001c12f  xdc_runtime_Timestamp_getFreq__E                                          
1001c13d  ti_sysbios_family_arm_m3_Hwi_Params__init__S                              
1001c13d  ti_sysbios_hal_Hwi_HwiProxy_Params__init__S                               
1001c149  ti_sysbios_family_arm_m3_Hwi_disableFxn__E                                
1001c155  ti_sysbios_family_arm_m3_Hwi_enableFxn__E                                 
1001c161  ti_sysbios_family_arm_m3_TaskSupport_getStackAlignment__E                 
1001c16d  ti_sysbios_gates_GateHwi_enter__E                                         
1001c179  ti_sysbios_BIOS_RtsGateProxy_Params__init__S                              
1001c179  ti_sysbios_gates_GateMutex_Params__init__S                                
1001c179  ti_sysbios_heaps_HeapMem_Module_GateProxy_Params__init__S                 
1001c185  ti_sysbios_knl_Clock_Params__init__S                                      
1001c191  ti_sysbios_knl_Clock_getTimerHandle__E                                    
1001c19d  ti_sysbios_knl_Mailbox_Params__init__S                                    
1001c1a9  ti_sysbios_knl_Queue_dequeue__E                                           
1001c1b5  ti_sysbios_knl_Queue_enqueue__E                                           
1001c1c1  ti_sysbios_knl_Semaphore_Params__init__S                                  
1001c1cd  ti_sysbios_knl_Swi_Params__init__S                                        
1001c1d9  ti_sysbios_knl_Task_Params__init__S                                       
1001c1e5  ti_sysbios_knl_Task_self__E                                               
1001c1f1  ti_sysbios_hal_Hwi_Instance_finalize__E                                   
1001c1fb  ti_sysbios_family_arm_m3_Hwi_doSwiRestore__I                              
1001c203  ti_sysbios_family_arm_m3_Hwi_startup__E                                   
1001c20b  ti_sysbios_knl_Idle_loop__E                                               
1001c213  ti_sysbios_family_arm_m3_Hwi_doTaskRestore__I                             
1001c219  ti_sysbios_family_arm_m3_Hwi_restoreFxn__E                                
1001c21f  ti_sysbios_gates_GateHwi_leave__E                                         
1001c225  ti_sysbios_knl_Clock_stop__E                                              
1001c22b  ti_sysbios_knl_Queue_Instance_init__E                                     
1001c231  ti_sysbios_knl_Queue_elemClear__E                                         
1001c237  ti_sysbios_knl_Swi_Module_startup__E                                      
1001c23d  ti_sysbios_knl_Swi_startup__E                                             
1001c243  ti_sysbios_knl_Task_enable__E                                             
1001c249  ti_sysbios_BIOS_RtsGateProxy_enter__E                                     
1001c24d  ti_sysbios_BIOS_RtsGateProxy_leave__E                                     
1001c251  ti_sysbios_family_arm_cc26xx_Timer_getExpiredTicks__E                     
1001c255  ti_sysbios_family_arm_cc26xx_Timer_getPeriod__E                           
1001c259  ti_sysbios_family_arm_cc26xx_Timer_setPeriod__E                           
1001c25d  ti_sysbios_family_arm_m3_Hwi_delete                                       
1001c261  ti_sysbios_family_arm_m3_Hwi_destruct                                     
1001c265  ti_sysbios_family_arm_m3_TaskSupport_Module__startupDone__S               
1001c269  ti_sysbios_gates_GateHwi_query__E                                         
1001c269  xdc_runtime_System_Module_GateProxy_query__E                              
1001c26d  ti_sysbios_gates_GateMutex_delete                                         
1001c271  ti_sysbios_gates_GateMutex_destruct                                       
1001c275  ti_sysbios_BIOS_RtsGateProxy_query__E                                     
1001c275  ti_sysbios_gates_GateMutex_query__E                                       
1001c275  ti_sysbios_heaps_HeapMem_Module_GateProxy_query__E                        
1001c279  ti_sysbios_hal_Hwi_HwiProxy_Module__startupDone__S                        
1001c27d  ti_sysbios_hal_Hwi_HwiProxy_delete                                        
1001c281  ti_sysbios_hal_Hwi_HwiProxy_disableInterrupt__E                           
1001c281  ti_sysbios_hal_Hwi_disableInterrupt__E                                    
1001c285  ti_sysbios_hal_Hwi_HwiProxy_enableInterrupt__E                            
1001c285  ti_sysbios_hal_Hwi_enableInterrupt__E                                     
1001c289  ti_sysbios_hal_Hwi_HwiProxy_getStackInfo__E                               
1001c289  ti_sysbios_hal_Hwi_getStackInfo__E                                        
1001c28d  ti_sysbios_hal_Hwi_HwiProxy_startup__E                                    
1001c28d  ti_sysbios_hal_Hwi_startup__E                                             
1001c291  ti_sysbios_hal_Hwi_HwiProxy_switchFromBootStack__E                        
1001c295  ti_sysbios_hal_Hwi_delete                                                 
1001c299  ti_sysbios_hal_Hwi_switchFromBootStack__E                                 
1001c29d  ti_sysbios_heaps_HeapMem_Module_GateProxy_enter__E                        
1001c2a1  ti_sysbios_heaps_HeapMem_Module_GateProxy_leave__E                        
1001c2a5  ti_sysbios_heaps_HeapMem_isBlocking__E                                    
1001c2a9  ti_sysbios_knl_Clock_TimerProxy_Module__startupDone__S                    
1001c2ad  ti_sysbios_knl_Clock_TimerProxy_getExpiredTicks__E                        
1001c2b1  ti_sysbios_knl_Clock_TimerProxy_getPeriod__E                              
1001c2b5  ti_sysbios_knl_Clock_delete                                               
1001c2b9  ti_sysbios_knl_Clock_destruct                                             
1001c2bd  ti_sysbios_knl_Clock_removeI__E                                           
1001c2c1  ti_sysbios_knl_Clock_setTimeout__E                                        
1001c2c5  ti_sysbios_knl_Mailbox_delete                                             
1001c2c9  ti_sysbios_knl_Mailbox_destruct                                           
1001c2cd  ti_sysbios_knl_Queue_delete                                               
1001c2d1  ti_sysbios_knl_Queue_destruct                                             
1001c2d5  ti_sysbios_knl_Queue_head__E                                              
1001c2d9  ti_sysbios_knl_Queue_next__E                                              
1001c2dd  ti_sysbios_knl_Semaphore_delete                                           
1001c2e1  ti_sysbios_knl_Semaphore_destruct                                         
1001c2e5  ti_sysbios_knl_Swi_delete                                                 
1001c2e9  ti_sysbios_knl_Swi_destruct                                               
1001c2ed  ti_sysbios_knl_Swi_postInit__I                                            
1001c2f1  ti_sysbios_knl_Task_SupportProxy_Module__startupDone__S                   
1001c2f5  ti_sysbios_knl_Task_SupportProxy_getStackAlignment__E                     
1001c2f9  ti_sysbios_knl_Task_SupportProxy_start__E                                 
1001c2fd  ti_sysbios_knl_Task_SupportProxy_swap__E                                  
1001c301  ti_sysbios_knl_Task_delete                                                
1001c305  ti_sysbios_knl_Task_destruct                                              
1001c309  ti_sysbios_knl_Task_startup__E                                            
1001c30d  xdc_runtime_Startup_startMods__I                                          
1001c405  xdc_runtime_Core_createObject__I                                          
1001c487  xdc_runtime_Error_policySpin__E                                           
1001c489  xdc_runtime_Memory_alloc__E                                               
1001c4f9  xdc_runtime_Core_deleteObject__I                                          
1001c559  xdc_runtime_Startup_exec__E                                               
1001c5a9  xdc_runtime_Assert_raise__I                                               
1001c5f1  xdc_runtime_Core_assignParams__I                                          
1001c639  xdc_runtime_Core_constructObject__I                                       
1001c681  xdc_runtime_System_atexit__E                                              
1001c6b9  xdc_runtime_System_processAtExit__E                                       
1001c6ed  xdc_runtime_Core_assignLabel__I                                           
1001c71d  xdc_runtime_Text_cordText__E                                              
1001c749  xdc_runtime_System_abort__E                                               
1001c769  xdc_runtime_Error_raiseX__E                                               
1001c785  xdc_runtime_Memory_valloc__E                                              
1001c7a1  xdc_runtime_Core_destructObject__I                                        
1001c7b9  xdc_runtime_Error_check__E                                                
1001c7d1  xdc_runtime_System_exit__E                                                
1001c7e9  xdc_runtime_Text_ropeText__E                                              
1001c801  xdc_runtime_Memory_free__E                                                
1001c811  xdc_runtime_SysCallback_abort__E                                          
1001c821  xdc_runtime_SysCallback_exit__E                                           
1001c831  xdc_runtime_Timestamp_SupportProxy_get32__E                               
1001c831  xdc_runtime_Timestamp_get32__E                                            
1001c841  xdc_runtime_Error_init__E                                                 
1001c84d  xdc_runtime_Memory_calloc__E                                              
1001c859  xdc_runtime_Memory_getMaxDefaultTypeAlign__E                              
1001c879  xdc_runtime_Gate_leaveSystem__E                                           
1001c87f  xdc_runtime_System_Module_startup__E                                      
1001c885  xdc_runtime_Gate_enterSystem__E                                           
1001c889  xdc_runtime_Memory_HeapProxy_alloc__E                                     
1001c88d  xdc_runtime_Memory_HeapProxy_free__E                                      
1001c891  xdc_runtime_System_Module_GateProxy_enter__E                              
1001c895  xdc_runtime_System_Module_GateProxy_leave__E                              
1001c899  xdc_runtime_System_abortSpin__E                                           
1001c89b  xdc_runtime_System_exitSpin__E                                            
1001c89d  ti_sysbios_family_arm_m3_Hwi_dispatch__I                                  
1001c96d  ti_sysbios_family_arm_m3_TaskSupport_buildTaskStack                       
1001c9b9  ti_sysbios_family_arm_m3_Hwi_initStacks__E                                
1001ca01  ti_sysbios_family_arm_m3_Hwi_excHandlerAsm__I                             
1001ca21  ti_sysbios_family_xxx_Hwi_switchAndRunFunc                                
1001ca3f  ti_sysbios_family_arm_m3_Hwi_pendSV__I                                    
1001ca57  ti_sysbios_family_arm_m3_Hwi_return                                       
1001ca59  ti_sysbios_family_arm_m3_TaskSupport_glue                                 
1001ca69  ti_sysbios_family_arm_m3_TaskSupport_swap__E                              
1001ca71  ti_sysbios_knl_Task_swapReturn                                            
1001ca9b  ti_sysbios_rom_cortexm_cc26xx_CC26xx_getRevision__E                       
20000000  ti_sysbios_family_arm_m3_Hwi_ramVectors                                   
20000100  ti_sysbios_knl_Task_Module__state__V                                      
20000144  ti_sysbios_family_arm_m3_Hwi_Module__state__V                             
20000178  ti_sysbios_knl_Clock_Module__state__V                                     
200001a4  ti_sysbios_BIOS_Module__state__V                                          
200001c8  ti_sysbios_knl_Swi_Module__state__V                                       
200001e4  ti_sysbios_family_arm_cc26xx_Timer_Module__state__V                       
200001ec  ti_sysbios_family_arm_cc26xx_TimestampProvider_Module__state__V           
200001f0  xdc_runtime_Startup_Module__state__V                                      
200001f8  xdc_runtime_System_Module__state__V                                       
20000200  xdc_runtime_Memory_Module__state__V                                       
200010d8  ti_sysbios_heaps_HeapMem_Instance_State_0_buf__A                          
20001758  uartLog_evBuf                                                             
20001c58  przTaskStack                                                              
20001f78  gapRoleTaskStack                                                          
20002180  ti_sysbios_knl_Task_Instance_State_0_stack__A                             
20002380  spiCC26XXDMAObjects                                                       
200024d0  iBuff                                                                     
200025d0  uartCC26XXObjects                                                         
200026a0  ti_sysbios_family_arm_m3_Hwi_dispatchTable                                
20002768  uartLog_outBuf                                                            
20002814  PIN_HandleTable                                                           
20002890  buff                                                                      
200028f4  gapRoleTask                                                               
20002944  przTask                                                                   
20002ad4  udmaObjects                                                               
20002b2c  buff_log                                                                  
20002b6c  buf                                                                       
20002b94  transaction                                                               
20002c40  PIN_NumPins                                                               
20002c48  handle                                                                    
20002c4c  mySwi                                                                     
20002c56  driverlib_release_0_43243                                                 
20002c57  linkDBNumConns                                                            
20002e00  ti_sysbios_family_arm_cc26xx_Power_Module__state__V                       
20002fe8  TSK_idle                                                                  
20002fe8  ti_sysbios_knl_Task_Object__table__V                                      
20003038  ti_sysbios_family_arm_cc26xx_Timer_Object__table__V                       
20003080  ti_sysbios_gates_GateMutex_Object__table__V                               
200030b8  rfRegTbl                                                                  
200030ec  ti_sysbios_family_arm_m3_Hwi_Object__table__V                             
2000311c  ti_sysbios_knl_Swi_Module_State_0_readyQ__A                               
2000314c  ti_sysbios_knl_Swi_Object__table__V                                       
2000317c  ti_sysbios_knl_Task_Module_State_0_readyQ__A                              
20003232  ti_sysbios_family_arm_m3_Hwi_Module_State_0_excActive__A                  
20003250  user0Cfg                                                                  
20003274  iHead                                                                     
20003278  iTail                                                                     
2000327c  oHead                                                                     
20003280  oTail                                                                     
20003284  ti_sysbios_heaps_HeapMem_Object__table__V                                 
2000332f  buf_tr                                                                    
20003357  ti_sysbios_family_arm_cc26xx_Power_refCount                               
2000337c  ICall_enterCriticalSection                                                
20003380  ICall_leaveCriticalSection                                                
20003388  ICall_dispatcher                                                          
2000338c  xdc_runtime_LoggerCallback_Object__table__V                               
200033bc  __TI_cleanup_ptr                                                          
200033c0  __TI_dtors_ptr                                                            
200033c4  __TI_enable_exit_profile_output                                           
200033e0  lastAppOpcodeSent                                                         
200033e4  pfnBMAlloc                                                                
200033e8  pfnBMFree                                                                 
200033f8  buttonPinTable                                                            
20003404  ledPinTable                                                               
20003410  ti_sysbios_family_arm_cc26xx_Power_resourceHandlers                       
20003420  uartLog_tail                                                              
20003421  uartLog_head                                                              
20003422  uartLog_evBufIsEmpty                                                      
20003424  uartLog_evtNum                                                            
20003428  _lock                                                                     
2000342c  _unlock                                                                   
20003440  ti_sysbios_family_arm_m3_Hwi_Module__root__V                              
20003448  ti_sysbios_gates_GateHwi_Module__root__V                                  
20003450  ti_sysbios_gates_GateMutex_Module__root__V                                
20003458  ti_sysbios_hal_Hwi_Module__root__V                                        
20003460  ti_sysbios_heaps_HeapMem_Module__root__V                                  
20003468  ti_sysbios_knl_Clock_Module__root__V                                      
20003470  ti_sysbios_knl_Mailbox_Module__root__V                                    
20003478  ti_sysbios_knl_Queue_Module__root__V                                      
20003480  ti_sysbios_knl_Semaphore_Module__root__V                                  
20003488  ti_sysbios_knl_Swi_Module__root__V                                        
20003490  ti_sysbios_knl_Task_Module__root__V                                       
200034b8  xdc_runtime_LoggerCallback_Module__root__V                                
200034c0  xdc_runtime_Registry_Module__state__V                                     
200034db  ti_sysbios_family_arm_cc26xx_Power_constraintCounts                       
200034e0  main_func_sp                                                              
200034e4  ti_sysbios_family_arm_m3_Hwi_Module_State_0_excContext__A                 
200034e8  ti_sysbios_family_arm_m3_Hwi_Module_State_0_excStack__A                   
200034ec  ti_sysbios_knl_Task_Module_State_0_idleTask__A                            
20003fe4  __stack                                                                   
200043e4  __STACK_END                                                               
200043e4  __STACK_TOP                                                               
e000e000  ti_sysbios_family_arm_m3_Hwi_nvic                                         
ffffffff  __TI_pprof_out_hndl                                                       
ffffffff  __TI_prof_data_size                                                       
ffffffff  __TI_prof_data_start                                                      
ffffffff  __binit__                                                                 
ffffffff  __c_args__                                                                
ffffffff  binit                                                                     
UNDEFED   SHT$$INIT_ARRAY$$Base                                                     
UNDEFED   SHT$$INIT_ARRAY$$Limit                                                    
UNDEFED   ti_sysbios_BIOS_RtsGateProxy_Handle__label__S__mangled__                  
UNDEFED   ti_sysbios_BIOS_RtsGateProxy_Object__delete__S__mangled__                 
UNDEFED   ti_sysbios_BIOS_RtsGateProxy_Params__init__S__mangled__                   
UNDEFED   ti_sysbios_BIOS_RtsGateProxy_query__E__mangled__                          
UNDEFED   ti_sysbios_hal_Hwi_HwiProxy_Module__startupDone__S__mangled__             
UNDEFED   ti_sysbios_hal_Hwi_HwiProxy_Object__delete__S__mangled__                  
UNDEFED   ti_sysbios_hal_Hwi_HwiProxy_Params__init__S__mangled__                    
UNDEFED   ti_sysbios_hal_Hwi_HwiProxy_disableInterrupt__E__mangled__                
UNDEFED   ti_sysbios_hal_Hwi_HwiProxy_enableInterrupt__E__mangled__                 
UNDEFED   ti_sysbios_hal_Hwi_HwiProxy_getStackInfo__E__mangled__                    
UNDEFED   ti_sysbios_hal_Hwi_HwiProxy_startup__E__mangled__                         
UNDEFED   ti_sysbios_hal_Hwi_HwiProxy_switchFromBootStack__E__mangled__             
UNDEFED   ti_sysbios_hal_Hwi_disableInterrupt__E__mangled__                         
UNDEFED   ti_sysbios_hal_Hwi_enableInterrupt__E__mangled__                          
UNDEFED   ti_sysbios_hal_Hwi_getStackInfo__E__mangled__                             
UNDEFED   ti_sysbios_hal_Hwi_startup__E__mangled__                                  
UNDEFED   ti_sysbios_hal_Hwi_switchFromBootStack__E__mangled__                      
UNDEFED   ti_sysbios_heaps_HeapMem_Module_GateProxy_Handle__label__S__mangled__     
UNDEFED   ti_sysbios_heaps_HeapMem_Module_GateProxy_Object__delete__S__mangled__    
UNDEFED   ti_sysbios_heaps_HeapMem_Module_GateProxy_Params__init__S__mangled__      
UNDEFED   ti_sysbios_heaps_HeapMem_Module_GateProxy_query__E__mangled__             
UNDEFED   ti_sysbios_knl_Clock_TimerProxy_Module__startupDone__S__mangled__         
UNDEFED   ti_sysbios_knl_Clock_TimerProxy_startup__E__mangled__                     
UNDEFED   ti_sysbios_knl_Task_SupportProxy_Module__startupDone__S__mangled__        
UNDEFED   ti_sysbios_knl_Task_SupportProxy_getStackAlignment__E__mangled__          
UNDEFED   ti_sysbios_knl_Task_SupportProxy_start__E__mangled__                      
UNDEFED   ti_sysbios_knl_Task_SupportProxy_swap__E__mangled__                       
UNDEFED   xdc_runtime_Main_Module_GateProxy_Handle__label__S                        
UNDEFED   xdc_runtime_Main_Module_GateProxy_Object__delete__S                       
UNDEFED   xdc_runtime_Main_Module_GateProxy_query__E                                
UNDEFED   xdc_runtime_Memory_HeapProxy_Handle__label__S__mangled__                  
UNDEFED   xdc_runtime_Memory_HeapProxy_Object__delete__S__mangled__                 
UNDEFED   xdc_runtime_System_Module_GateProxy_Handle__label__S__mangled__           
UNDEFED   xdc_runtime_System_Module_GateProxy_Object__delete__S__mangled__          
UNDEFED   xdc_runtime_System_Module_GateProxy_query__E__mangled__                   
UNDEFED   xdc_runtime_System_SupportProxy_abort__E                                  
UNDEFED   xdc_runtime_System_SupportProxy_exit__E                                   
UNDEFED   xdc_runtime_Timestamp_SupportProxy_get64__E__mangled__                    
UNDEFED   xdc_runtime_Timestamp_SupportProxy_getFreq__E__mangled__                  
UNDEFED   xdc_runtime_Timestamp_get32__E__mangled__                                 
UNDEFED   xdc_runtime_Timestamp_get64__E__mangled__                                 
UNDEFED   xdc_runtime_Timestamp_getFreq__E__mangled__                               

[920 symbols]
